Archive member included because of file (symbol)

D:\nburn\lib\MOD5270.a(bsp.o)
                              main.o (SetIntc)
D:\nburn\lib\MOD5270.a(pins.o)
                              main.o (PinIO::set(unsigned char))
D:\nburn\lib\NetBurner.a(ucosmcfa.o)
                              D:\nburn\lib\MOD5270.a(bsp.o) (OSCtxSw)
D:\nburn\lib\NetBurner.a(ucosmcfc.o)
                              main.o (OSTaskCreate)
D:\nburn\lib\NetBurner.a(ucos.o)
                              main.o (OSIntNesting)
D:\nburn\lib\NetBurner.a(ucosmain.o)
                              D:\nburn\lib\NetBurner.a(ucos.o) (OSTCBTbl)
D:\nburn\lib\NetBurner.a(fileio.o)
                              D:\nburn\lib\NetBurner.a(ucosmain.o) (ioctl)
D:\nburn\lib\NetBurner.a(tzsetchar.o)
                              main.o (tzsetchar)
D:\nburn\lib\NetBurner.a(main.o)
                              d:/nburn/gcc-m68k/bin/../lib/gcc/m68k-elf/4.2.1/../../../../m68k-elf/lib/m5208\nb-crt0.o (main)
D:\nburn\lib\NetBurner.a(utils.o)
                              main.o (ShowIP)
D:\nburn\lib\NetBurner.a(ip.o)
                              main.o (InitializeStack(unsigned long, unsigned long, unsigned long, unsigned long))
D:\nburn\lib\NetBurner.a(buffers.o)
                              D:\nburn\lib\NetBurner.a(ip.o) (FreeBuffer)
D:\nburn\lib\NetBurner.a(arp.o)
                              D:\nburn\lib\NetBurner.a(ip.o) (wArpLifetime)
D:\nburn\lib\NetBurner.a(dns.o)
                              main.o (GetHostByName)
D:\nburn\lib\NetBurner.a(udp.o)
                              D:\nburn\lib\NetBurner.a(dns.o) (UDPPacket::SetSourcePort(unsigned short))
D:\nburn\lib\NetBurner.a(tcp.o)
                              main.o (GetSocketRemoteAddr(int))
D:\nburn\lib\NetBurner.a(iosys.o)
                              D:\nburn\lib\NetBurner.a(tcp.o) (FD_ZERO)
D:\nburn\lib\NetBurner.a(dhcpc.o)
                              main.o (GetDHCPAddress(int))
D:\nburn\lib\NetBurner.a(nbtime.o)
                              main.o (time)
D:\nburn\lib\NetBurner.a(ntpclient.o)
                              main.o (SetNTPTime)
D:\nburn\lib\NetBurner.a(netinterface.o)
                              D:\nburn\lib\NetBurner.a(arp.o) (GetFirstInterface())
D:\nburn\lib\NetBurner.a(taskmon.o)
                              main.o (EnableTaskMonitor())
D:\nburn\lib\NetBurner.a(autoupdate.o)
                              main.o (EnableAutoUpdate)
D:\nburn\lib\NetBurner.a(device.o)
                              D:\nburn\lib\NetBurner.a(main.o) (DeviceInitializeSem)
D:\nburn\lib\NetBurner.a(system.o)
                              D:\nburn\lib\NetBurner.a(udp.o) (isvalidcr)
D:\nburn\lib\NetBurner.a(new_ops.o)
                              D:\nburn\lib\NetBurner.a(dhcpc.o) (operator new(unsigned long))
D:\nburn\lib\MOD5270.a(ioboard.o)
                              D:\nburn\lib\NetBurner.a(ucos.o) (putleds)
D:\nburn\lib\MOD5270.a(serial.o)
                              D:\nburn\lib\NetBurner.a(fileio.o) (SerialClose)
D:\nburn\lib\MOD5270.a(ethernet.o)
                              D:\nburn\lib\NetBurner.a(netinterface.o) (AddEthernetInterface())
D:\nburn\lib\MOD5270.a(etherprint.o)
                              D:\nburn\lib\MOD5270.a(ethernet.o) (EtherLink())
D:\nburn\lib\MOD5270.a(emulticast.o)
                              D:\nburn\lib\MOD5270.a(ethernet.o) (EthEnableMulticast(MACADR))
D:\nburn\lib\NetBurner.a(extraio.o)
                              D:\nburn\lib\MOD5270.a(serial.o) (GetExtraFD)
d:/nburn/gcc-m68k/bin/../lib/gcc/m68k-elf/4.2.1/../../../../m68k-elf/lib/m5208\libstdc++.a(string-inst.o)
                              main.o (std::string::_Rep::_S_empty_rep_storage)
d:/nburn/gcc-m68k/bin/../lib/gcc/m68k-elf/4.2.1/../../../../m68k-elf/lib/m5208\libstdc++.a(del_op.o)
                              d:/nburn/gcc-m68k/bin/../lib/gcc/m68k-elf/4.2.1/../../../../m68k-elf/lib/m5208\libstdc++.a(string-inst.o) (operator delete(void*))
d:/nburn/gcc-m68k/bin/../lib/gcc/m68k-elf/4.2.1/../../../../m68k-elf/lib/m5208\libstdc++.a(eh_personality.o)
                              d:/nburn/gcc-m68k/bin/../lib/gcc/m68k-elf/4.2.1/../../../../m68k-elf/lib/m5208\libstdc++.a(string-inst.o) (__gxx_personality_v0)
d:/nburn/gcc-m68k/bin/../lib/gcc/m68k-elf/4.2.1/../../../../m68k-elf/lib/m5208\libstdc++.a(eh_alloc.o)
                              d:/nburn/gcc-m68k/bin/../lib/gcc/m68k-elf/4.2.1/../../../../m68k-elf/lib/m5208\libstdc++.a(eh_personality.o) (__cxa_allocate_exception)
d:/nburn/gcc-m68k/bin/../lib/gcc/m68k-elf/4.2.1/../../../../m68k-elf/lib/m5208\libstdc++.a(functexcept.o)
                              d:/nburn/gcc-m68k/bin/../lib/gcc/m68k-elf/4.2.1/../../../../m68k-elf/lib/m5208\libstdc++.a(string-inst.o) (std::__throw_logic_error(char const*))
d:/nburn/gcc-m68k/bin/../lib/gcc/m68k-elf/4.2.1/../../../../m68k-elf/lib/m5208\libstdc++.a(ios_failure.o)
                              d:/nburn/gcc-m68k/bin/../lib/gcc/m68k-elf/4.2.1/../../../../m68k-elf/lib/m5208\libstdc++.a(functexcept.o) (std::ios_base::failure::~failure())
d:/nburn/gcc-m68k/bin/../lib/gcc/m68k-elf/4.2.1/../../../../m68k-elf/lib/m5208\libstdc++.a(stdexcept.o)
                              d:/nburn/gcc-m68k/bin/../lib/gcc/m68k-elf/4.2.1/../../../../m68k-elf/lib/m5208\libstdc++.a(functexcept.o) (std::runtime_error::what() const)
d:/nburn/gcc-m68k/bin/../lib/gcc/m68k-elf/4.2.1/../../../../m68k-elf/lib/m5208\libstdc++.a(eh_throw.o)
                              d:/nburn/gcc-m68k/bin/../lib/gcc/m68k-elf/4.2.1/../../../../m68k-elf/lib/m5208\libstdc++.a(eh_personality.o) (__cxa_rethrow)
d:/nburn/gcc-m68k/bin/../lib/gcc/m68k-elf/4.2.1/../../../../m68k-elf/lib/m5208\libstdc++.a(new_handler.o)
                              d:/nburn/gcc-m68k/bin/../lib/gcc/m68k-elf/4.2.1/../../../../m68k-elf/lib/m5208\libstdc++.a(functexcept.o) (vtable for std::bad_alloc)
d:/nburn/gcc-m68k/bin/../lib/gcc/m68k-elf/4.2.1/../../../../m68k-elf/lib/m5208\libstdc++.a(eh_globals.o)
                              d:/nburn/gcc-m68k/bin/../lib/gcc/m68k-elf/4.2.1/../../../../m68k-elf/lib/m5208\libstdc++.a(eh_personality.o) (__cxa_get_globals_fast)
d:/nburn/gcc-m68k/bin/../lib/gcc/m68k-elf/4.2.1/../../../../m68k-elf/lib/m5208\libstdc++.a(eh_exception.o)
                              d:/nburn/gcc-m68k/bin/../lib/gcc/m68k-elf/4.2.1/../../../../m68k-elf/lib/m5208\libstdc++.a(ios_failure.o) (std::exception::~exception())
d:/nburn/gcc-m68k/bin/../lib/gcc/m68k-elf/4.2.1/../../../../m68k-elf/lib/m5208\libstdc++.a(eh_catch.o)
                              d:/nburn/gcc-m68k/bin/../lib/gcc/m68k-elf/4.2.1/../../../../m68k-elf/lib/m5208\libstdc++.a(eh_personality.o) (__cxa_end_catch)
d:/nburn/gcc-m68k/bin/../lib/gcc/m68k-elf/4.2.1/../../../../m68k-elf/lib/m5208\libstdc++.a(eh_terminate.o)
                              d:/nburn/gcc-m68k/bin/../lib/gcc/m68k-elf/4.2.1/../../../../m68k-elf/lib/m5208\libstdc++.a(eh_personality.o) (__cxxabiv1::__terminate(void (*)()))
d:/nburn/gcc-m68k/bin/../lib/gcc/m68k-elf/4.2.1/../../../../m68k-elf/lib/m5208\libstdc++.a(bad_typeid.o)
                              d:/nburn/gcc-m68k/bin/../lib/gcc/m68k-elf/4.2.1/../../../../m68k-elf/lib/m5208\libstdc++.a(functexcept.o) (vtable for std::bad_typeid)
d:/nburn/gcc-m68k/bin/../lib/gcc/m68k-elf/4.2.1/../../../../m68k-elf/lib/m5208\libstdc++.a(eh_call.o)
                              d:/nburn/gcc-m68k/bin/../lib/gcc/m68k-elf/4.2.1/../../../../m68k-elf/lib/m5208\libstdc++.a(eh_personality.o) (__cxa_call_terminate)
d:/nburn/gcc-m68k/bin/../lib/gcc/m68k-elf/4.2.1/../../../../m68k-elf/lib/m5208\libstdc++.a(class_type_info.o)
                              d:/nburn/gcc-m68k/bin/../lib/gcc/m68k-elf/4.2.1/../../../../m68k-elf/lib/m5208\libstdc++.a(eh_exception.o) (vtable for __cxxabiv1::__class_type_info)
d:/nburn/gcc-m68k/bin/../lib/gcc/m68k-elf/4.2.1/../../../../m68k-elf/lib/m5208\libstdc++.a(eh_term_handler.o)
                              d:/nburn/gcc-m68k/bin/../lib/gcc/m68k-elf/4.2.1/../../../../m68k-elf/lib/m5208\libstdc++.a(eh_throw.o) (__cxxabiv1::__terminate_handler)
d:/nburn/gcc-m68k/bin/../lib/gcc/m68k-elf/4.2.1/../../../../m68k-elf/lib/m5208\libstdc++.a(bad_cast.o)
                              d:/nburn/gcc-m68k/bin/../lib/gcc/m68k-elf/4.2.1/../../../../m68k-elf/lib/m5208\libstdc++.a(functexcept.o) (vtable for std::bad_cast)
d:/nburn/gcc-m68k/bin/../lib/gcc/m68k-elf/4.2.1/../../../../m68k-elf/lib/m5208\libstdc++.a(eh_unex_handler.o)
                              d:/nburn/gcc-m68k/bin/../lib/gcc/m68k-elf/4.2.1/../../../../m68k-elf/lib/m5208\libstdc++.a(eh_throw.o) (__cxxabiv1::__unexpected_handler)
d:/nburn/gcc-m68k/bin/../lib/gcc/m68k-elf/4.2.1/../../../../m68k-elf/lib/m5208\libstdc++.a(si_class_type_info.o)
                              d:/nburn/gcc-m68k/bin/../lib/gcc/m68k-elf/4.2.1/../../../../m68k-elf/lib/m5208\libstdc++.a(functexcept.o) (vtable for __cxxabiv1::__si_class_type_info)
d:/nburn/gcc-m68k/bin/../lib/gcc/m68k-elf/4.2.1/../../../../m68k-elf/lib/m5208\libstdc++.a(vterminate.o)
                              d:/nburn/gcc-m68k/bin/../lib/gcc/m68k-elf/4.2.1/../../../../m68k-elf/lib/m5208\libstdc++.a(eh_term_handler.o) (__gnu_cxx::__verbose_terminate_handler())
d:/nburn/gcc-m68k/bin/../lib/gcc/m68k-elf/4.2.1/../../../../m68k-elf/lib/m5208\libstdc++.a(cp-demangle.o)
                              d:/nburn/gcc-m68k/bin/../lib/gcc/m68k-elf/4.2.1/../../../../m68k-elf/lib/m5208\libstdc++.a(vterminate.o) (__cxa_demangle)
d:/nburn/gcc-m68k/bin/../lib/gcc/m68k-elf/4.2.1/../../../../m68k-elf/lib/m5208\libstdc++.a(tinfo.o)
                              d:/nburn/gcc-m68k/bin/../lib/gcc/m68k-elf/4.2.1/../../../../m68k-elf/lib/m5208\libstdc++.a(class_type_info.o) (std::type_info::__is_pointer_p() const)
d:/nburn/gcc-m68k/bin/../lib/gcc/m68k-elf/4.2.1/../../../../m68k-elf/lib/m5208\libstdc++.a(eh_type.o)
                              d:/nburn/gcc-m68k/bin/../lib/gcc/m68k-elf/4.2.1/../../../../m68k-elf/lib/m5208\libstdc++.a(vterminate.o) (__cxa_current_exception_type)
d:/nburn/gcc-m68k/bin/../lib/gcc/m68k-elf/4.2.1/m5208\libgcc.a(_double.o)
                              D:\nburn\lib\NetBurner.a(dhcpc.o) (__adddf3)
d:/nburn/gcc-m68k/bin/../lib/gcc/m68k-elf/4.2.1/m5208\libgcc.a(_floatex.o)
                              d:/nburn/gcc-m68k/bin/../lib/gcc/m68k-elf/4.2.1/m5208\libgcc.a(_double.o) (_fpCCR)
d:/nburn/gcc-m68k/bin/../lib/gcc/m68k-elf/4.2.1/m5208\libgcc.a(_ltdf2.o)
                              D:\nburn\lib\MOD5270.a(bsp.o) (__ltdf2)
d:/nburn/gcc-m68k/bin/../lib/gcc/m68k-elf/4.2.1/m5208\libgcc.a(_muldi3.o)
                              D:\nburn\lib\NetBurner.a(ntpclient.o) (__muldi3)
d:/nburn/gcc-m68k/bin/../lib/gcc/m68k-elf/4.2.1/m5208\libgcc.a(_fixunsdfsi.o)
                              D:\nburn\lib\NetBurner.a(dhcpc.o) (__fixunsdfsi)
d:/nburn/gcc-m68k/bin/../lib/gcc/m68k-elf/4.2.1/m5208\libgcc.a(fpgnulib.o)
                              D:\nburn\lib\MOD5270.a(bsp.o) (__floatunsidf)
d:/nburn/gcc-m68k/bin/../lib/gcc/m68k-elf/4.2.1/m5208\libgcc.a(unwind-dw2.o)
                              d:/nburn/gcc-m68k/bin/../lib/gcc/m68k-elf/4.2.1/../../../../m68k-elf/lib/m5208\libstdc++.a(eh_personality.o) (_Unwind_GetIP)
d:/nburn/gcc-m68k/bin/../lib/gcc/m68k-elf/4.2.1/m5208\libgcc.a(unwind-dw2-fde.o)
                              d:/nburn/gcc-m68k/bin/../lib/gcc/m68k-elf/4.2.1/m5208\libgcc.a(unwind-dw2.o) (_Unwind_Find_FDE)
d:/nburn/gcc-m68k/bin/../lib/gcc/m68k-elf/4.2.1/m5208\libgcc.a(_gedf2.o)
                              d:/nburn/gcc-m68k/bin/../lib/gcc/m68k-elf/4.2.1/m5208\libgcc.a(_fixunsdfsi.o) (__gedf2)
d:/nburn/gcc-m68k/bin/../lib/gcc/m68k-elf/4.2.1/../../../../m68k-elf/lib/m5208\libc.a(lib_a-abort.o)
                              d:/nburn/gcc-m68k/bin/../lib/gcc/m68k-elf/4.2.1/../../../../m68k-elf/lib/m5208\libstdc++.a(eh_personality.o) (abort)
d:/nburn/gcc-m68k/bin/../lib/gcc/m68k-elf/4.2.1/../../../../m68k-elf/lib/m5208\libc.a(lib_a-asctime.o)
                              main.o (asctime)
d:/nburn/gcc-m68k/bin/../lib/gcc/m68k-elf/4.2.1/../../../../m68k-elf/lib/m5208\libc.a(lib_a-asctime_r.o)
                              d:/nburn/gcc-m68k/bin/../lib/gcc/m68k-elf/4.2.1/../../../../m68k-elf/lib/m5208\libc.a(lib_a-asctime.o) (asctime_r)
d:/nburn/gcc-m68k/bin/../lib/gcc/m68k-elf/4.2.1/../../../../m68k-elf/lib/m5208\libc.a(lib_a-cxa_atexit.o)
                              main.o (__cxa_atexit)
d:/nburn/gcc-m68k/bin/../lib/gcc/m68k-elf/4.2.1/../../../../m68k-elf/lib/m5208\libc.a(lib_a-errno.o)
                              D:\nburn\lib\NetBurner.a(fileio.o) (__errno)
d:/nburn/gcc-m68k/bin/../lib/gcc/m68k-elf/4.2.1/../../../../m68k-elf/lib/m5208\libc.a(lib_a-fiprintf.o)
                              D:\nburn\lib\NetBurner.a(utils.o) (fiprintf)
d:/nburn/gcc-m68k/bin/../lib/gcc/m68k-elf/4.2.1/../../../../m68k-elf/lib/m5208\libc.a(lib_a-fputc.o)
                              d:/nburn/gcc-m68k/bin/../lib/gcc/m68k-elf/4.2.1/../../../../m68k-elf/lib/m5208\libstdc++.a(vterminate.o) (fputc)
d:/nburn/gcc-m68k/bin/../lib/gcc/m68k-elf/4.2.1/../../../../m68k-elf/lib/m5208\libc.a(lib_a-fputs.o)
                              d:/nburn/gcc-m68k/bin/../lib/gcc/m68k-elf/4.2.1/../../../../m68k-elf/lib/m5208\libstdc++.a(vterminate.o) (fputs)
d:/nburn/gcc-m68k/bin/../lib/gcc/m68k-elf/4.2.1/../../../../m68k-elf/lib/m5208\libc.a(lib_a-fvwrite.o)
                              d:/nburn/gcc-m68k/bin/../lib/gcc/m68k-elf/4.2.1/../../../../m68k-elf/lib/m5208\libc.a(lib_a-fputs.o) (__sfvwrite_r)
d:/nburn/gcc-m68k/bin/../lib/gcc/m68k-elf/4.2.1/../../../../m68k-elf/lib/m5208\libc.a(lib_a-fwrite.o)
                              d:/nburn/gcc-m68k/bin/../lib/gcc/m68k-elf/4.2.1/../../../../m68k-elf/lib/m5208\libstdc++.a(vterminate.o) (fwrite)
d:/nburn/gcc-m68k/bin/../lib/gcc/m68k-elf/4.2.1/../../../../m68k-elf/lib/m5208\libc.a(lib_a-getchar.o)
                              main.o (getchar)
d:/nburn/gcc-m68k/bin/../lib/gcc/m68k-elf/4.2.1/../../../../m68k-elf/lib/m5208\libc.a(lib_a-getc.o)
                              d:/nburn/gcc-m68k/bin/../lib/gcc/m68k-elf/4.2.1/../../../../m68k-elf/lib/m5208\libc.a(lib_a-getchar.o) (_getc_r)
d:/nburn/gcc-m68k/bin/../lib/gcc/m68k-elf/4.2.1/../../../../m68k-elf/lib/m5208\libc.a(lib_a-gettzinfo.o)
                              D:\nburn\lib\NetBurner.a(tzsetchar.o) (__gettzinfo)
d:/nburn/gcc-m68k/bin/../lib/gcc/m68k-elf/4.2.1/../../../../m68k-elf/lib/m5208\libc.a(lib_a-gmtime.o)
                              main.o (gmtime)
d:/nburn/gcc-m68k/bin/../lib/gcc/m68k-elf/4.2.1/../../../../m68k-elf/lib/m5208\libc.a(lib_a-gmtime_r.o)
                              main.o (gmtime_r)
d:/nburn/gcc-m68k/bin/../lib/gcc/m68k-elf/4.2.1/../../../../m68k-elf/lib/m5208\libc.a(lib_a-impure.o)
                              D:\nburn\lib\NetBurner.a(ucosmain.o) (_impure_ptr)
d:/nburn/gcc-m68k/bin/../lib/gcc/m68k-elf/4.2.1/../../../../m68k-elf/lib/m5208\libc.a(lib_a-iprintf.o)
                              main.o (iprintf)
d:/nburn/gcc-m68k/bin/../lib/gcc/m68k-elf/4.2.1/../../../../m68k-elf/lib/m5208\libc.a(lib_a-lcltime_r.o)
                              main.o (localtime_r)
d:/nburn/gcc-m68k/bin/../lib/gcc/m68k-elf/4.2.1/../../../../m68k-elf/lib/m5208\libc.a(lib_a-malloc.o)
                              D:\nburn\lib\NetBurner.a(tzsetchar.o) (free)
d:/nburn/gcc-m68k/bin/../lib/gcc/m68k-elf/4.2.1/../../../../m68k-elf/lib/m5208\libc.a(lib_a-mallocr.o)
                              d:/nburn/gcc-m68k/bin/../lib/gcc/m68k-elf/4.2.1/../../../../m68k-elf/lib/m5208\libc.a(lib_a-malloc.o) (_malloc_r)
d:/nburn/gcc-m68k/bin/../lib/gcc/m68k-elf/4.2.1/../../../../m68k-elf/lib/m5208\libc.a(lib_a-memchr.o)
                              d:/nburn/gcc-m68k/bin/../lib/gcc/m68k-elf/4.2.1/../../../../m68k-elf/lib/m5208\libstdc++.a(string-inst.o) (memchr)
d:/nburn/gcc-m68k/bin/../lib/gcc/m68k-elf/4.2.1/../../../../m68k-elf/lib/m5208\libc.a(lib_a-memcmp.o)
                              d:/nburn/gcc-m68k/bin/../lib/gcc/m68k-elf/4.2.1/../../../../m68k-elf/lib/m5208\libstdc++.a(string-inst.o) (memcmp)
d:/nburn/gcc-m68k/bin/../lib/gcc/m68k-elf/4.2.1/../../../../m68k-elf/lib/m5208\libc.a(lib_a-memmove.o)
                              d:/nburn/gcc-m68k/bin/../lib/gcc/m68k-elf/4.2.1/../../../../m68k-elf/lib/m5208\libstdc++.a(string-inst.o) (memmove)
d:/nburn/gcc-m68k/bin/../lib/gcc/m68k-elf/4.2.1/../../../../m68k-elf/lib/m5208\libc.a(lib_a-mktm_r.o)
                              D:\nburn\lib\NetBurner.a(tzsetchar.o) (__tzcalc_limits)
d:/nburn/gcc-m68k/bin/../lib/gcc/m68k-elf/4.2.1/../../../../m68k-elf/lib/m5208\libc.a(lib_a-putc.o)
                              d:/nburn/gcc-m68k/bin/../lib/gcc/m68k-elf/4.2.1/../../../../m68k-elf/lib/m5208\libc.a(lib_a-fputc.o) (_putc_r)
d:/nburn/gcc-m68k/bin/../lib/gcc/m68k-elf/4.2.1/../../../../m68k-elf/lib/m5208\libc.a(lib_a-puts.o)
                              main.o (puts)
d:/nburn/gcc-m68k/bin/../lib/gcc/m68k-elf/4.2.1/../../../../m68k-elf/lib/m5208\libc.a(lib_a-realloc.o)
                              d:/nburn/gcc-m68k/bin/../lib/gcc/m68k-elf/4.2.1/../../../../m68k-elf/lib/m5208\libstdc++.a(cp-demangle.o) (realloc)
d:/nburn/gcc-m68k/bin/../lib/gcc/m68k-elf/4.2.1/../../../../m68k-elf/lib/m5208\libc.a(lib_a-reallocr.o)
                              d:/nburn/gcc-m68k/bin/../lib/gcc/m68k-elf/4.2.1/../../../../m68k-elf/lib/m5208\libc.a(lib_a-fvwrite.o) (_realloc_r)
d:/nburn/gcc-m68k/bin/../lib/gcc/m68k-elf/4.2.1/../../../../m68k-elf/lib/m5208\libc.a(lib_a-rget.o)
                              D:\nburn\lib\NetBurner.a(system.o) (__srget_r)
d:/nburn/gcc-m68k/bin/../lib/gcc/m68k-elf/4.2.1/../../../../m68k-elf/lib/m5208\libc.a(lib_a-setvbuf.o)
                              D:\nburn\lib\NetBurner.a(ucosmain.o) (setvbuf)
d:/nburn/gcc-m68k/bin/../lib/gcc/m68k-elf/4.2.1/../../../../m68k-elf/lib/m5208\libc.a(lib_a-signal.o)
                              d:/nburn/gcc-m68k/bin/../lib/gcc/m68k-elf/4.2.1/../../../../m68k-elf/lib/m5208\libc.a(lib_a-abort.o) (raise)
d:/nburn/gcc-m68k/bin/../lib/gcc/m68k-elf/4.2.1/../../../../m68k-elf/lib/m5208\libc.a(lib_a-signalr.o)
                              d:/nburn/gcc-m68k/bin/../lib/gcc/m68k-elf/4.2.1/../../../../m68k-elf/lib/m5208\libc.a(lib_a-signal.o) (_getpid_r)
d:/nburn/gcc-m68k/bin/../lib/gcc/m68k-elf/4.2.1/../../../../m68k-elf/lib/m5208\libc.a(lib_a-siprintf.o)
                              main.o (siprintf)
d:/nburn/gcc-m68k/bin/../lib/gcc/m68k-elf/4.2.1/../../../../m68k-elf/lib/m5208\libc.a(lib_a-sprintf.o)
                              main.o (sprintf)
d:/nburn/gcc-m68k/bin/../lib/gcc/m68k-elf/4.2.1/../../../../m68k-elf/lib/m5208\libc.a(lib_a-sscanf.o)
                              D:\nburn\lib\NetBurner.a(tzsetchar.o) (sscanf)
d:/nburn/gcc-m68k/bin/../lib/gcc/m68k-elf/4.2.1/../../../../m68k-elf/lib/m5208\libc.a(lib_a-strcat.o)
                              d:/nburn/gcc-m68k/bin/../lib/gcc/m68k-elf/4.2.1/../../../../m68k-elf/lib/m5208\libstdc++.a(cp-demangle.o) (strcat)
d:/nburn/gcc-m68k/bin/../lib/gcc/m68k-elf/4.2.1/../../../../m68k-elf/lib/m5208\libc.a(lib_a-strcmp.o)
                              D:\nburn\lib\NetBurner.a(tzsetchar.o) (strcmp)
d:/nburn/gcc-m68k/bin/../lib/gcc/m68k-elf/4.2.1/../../../../m68k-elf/lib/m5208\libc.a(lib_a-strcpy.o)
                              D:\nburn\lib\NetBurner.a(tzsetchar.o) (strcpy)
d:/nburn/gcc-m68k/bin/../lib/gcc/m68k-elf/4.2.1/../../../../m68k-elf/lib/m5208\libc.a(lib_a-strlen.o)
                              D:\nburn\lib\NetBurner.a(tzsetchar.o) (strlen)
d:/nburn/gcc-m68k/bin/../lib/gcc/m68k-elf/4.2.1/../../../../m68k-elf/lib/m5208\libc.a(lib_a-strncmp.o)
                              d:/nburn/gcc-m68k/bin/../lib/gcc/m68k-elf/4.2.1/../../../../m68k-elf/lib/m5208\libstdc++.a(cp-demangle.o) (strncmp)
d:/nburn/gcc-m68k/bin/../lib/gcc/m68k-elf/4.2.1/../../../../m68k-elf/lib/m5208\libc.a(lib_a-strtoul.o)
                              D:\nburn\lib\NetBurner.a(tzsetchar.o) (strtoul)
d:/nburn/gcc-m68k/bin/../lib/gcc/m68k-elf/4.2.1/../../../../m68k-elf/lib/m5208\libc.a(lib_a-tzvars.o)
                              main.o (_tzname)
d:/nburn/gcc-m68k/bin/../lib/gcc/m68k-elf/4.2.1/../../../../m68k-elf/lib/m5208\libc.a(lib_a-vfiprintf.o)
                              d:/nburn/gcc-m68k/bin/../lib/gcc/m68k-elf/4.2.1/../../../../m68k-elf/lib/m5208\libc.a(lib_a-iprintf.o) (_vfiprintf_r)
d:/nburn/gcc-m68k/bin/../lib/gcc/m68k-elf/4.2.1/../../../../m68k-elf/lib/m5208\libc.a(lib_a-vfprintf.o)
                              d:/nburn/gcc-m68k/bin/../lib/gcc/m68k-elf/4.2.1/../../../../m68k-elf/lib/m5208\libc.a(lib_a-sprintf.o) (_vfprintf_r)
d:/nburn/gcc-m68k/bin/../lib/gcc/m68k-elf/4.2.1/../../../../m68k-elf/lib/m5208\libc.a(lib_a-vfscanf.o)
                              d:/nburn/gcc-m68k/bin/../lib/gcc/m68k-elf/4.2.1/../../../../m68k-elf/lib/m5208\libc.a(lib_a-sscanf.o) (__svfscanf_r)
d:/nburn/gcc-m68k/bin/../lib/gcc/m68k-elf/4.2.1/../../../../m68k-elf/lib/m5208\libc.a(lib_a-wbuf.o)
                              D:\nburn\lib\NetBurner.a(utils.o) (__swbuf_r)
d:/nburn/gcc-m68k/bin/../lib/gcc/m68k-elf/4.2.1/../../../../m68k-elf/lib/m5208\libc.a(lib_a-wcrtomb.o)
                              d:/nburn/gcc-m68k/bin/../lib/gcc/m68k-elf/4.2.1/../../../../m68k-elf/lib/m5208\libc.a(lib_a-vfiprintf.o) (_wcrtomb_r)
d:/nburn/gcc-m68k/bin/../lib/gcc/m68k-elf/4.2.1/../../../../m68k-elf/lib/m5208\libc.a(lib_a-wcsrtombs.o)
                              d:/nburn/gcc-m68k/bin/../lib/gcc/m68k-elf/4.2.1/../../../../m68k-elf/lib/m5208\libc.a(lib_a-vfiprintf.o) (_wcsrtombs_r)
d:/nburn/gcc-m68k/bin/../lib/gcc/m68k-elf/4.2.1/../../../../m68k-elf/lib/m5208\libc.a(lib_a-wctomb_r.o)
                              d:/nburn/gcc-m68k/bin/../lib/gcc/m68k-elf/4.2.1/../../../../m68k-elf/lib/m5208\libc.a(lib_a-wcrtomb.o) (_wctomb_r)
d:/nburn/gcc-m68k/bin/../lib/gcc/m68k-elf/4.2.1/../../../../m68k-elf/lib/m5208\libc.a(lib_a-wsetup.o)
                              d:/nburn/gcc-m68k/bin/../lib/gcc/m68k-elf/4.2.1/../../../../m68k-elf/lib/m5208\libc.a(lib_a-fvwrite.o) (__swsetup)
d:/nburn/gcc-m68k/bin/../lib/gcc/m68k-elf/4.2.1/../../../../m68k-elf/lib/m5208\libc.a(lib_a-__atexit.o)
                              d:/nburn/gcc-m68k/bin/../lib/gcc/m68k-elf/4.2.1/../../../../m68k-elf/lib/m5208\libc.a(lib_a-cxa_atexit.o) (__register_exitproc)
d:/nburn/gcc-m68k/bin/../lib/gcc/m68k-elf/4.2.1/../../../../m68k-elf/lib/m5208\libc.a(lib_a-ctype_.o)
                              d:/nburn/gcc-m68k/bin/../lib/gcc/m68k-elf/4.2.1/../../../../m68k-elf/lib/m5208\libc.a(lib_a-strtoul.o) (__ctype_ptr)
d:/nburn/gcc-m68k/bin/../lib/gcc/m68k-elf/4.2.1/../../../../m68k-elf/lib/m5208\libc.a(lib_a-dtoa.o)
                              d:/nburn/gcc-m68k/bin/../lib/gcc/m68k-elf/4.2.1/../../../../m68k-elf/lib/m5208\libc.a(lib_a-vfprintf.o) (_dtoa_r)
d:/nburn/gcc-m68k/bin/../lib/gcc/m68k-elf/4.2.1/../../../../m68k-elf/lib/m5208\libc.a(lib_a-fflush.o)
                              d:/nburn/gcc-m68k/bin/../lib/gcc/m68k-elf/4.2.1/../../../../m68k-elf/lib/m5208\libc.a(lib_a-fvwrite.o) (fflush)
d:/nburn/gcc-m68k/bin/../lib/gcc/m68k-elf/4.2.1/../../../../m68k-elf/lib/m5208\libc.a(lib_a-findfp.o)
                              d:/nburn/gcc-m68k/bin/../lib/gcc/m68k-elf/4.2.1/../../../../m68k-elf/lib/m5208\libc.a(lib_a-fputc.o) (__sinit)
d:/nburn/gcc-m68k/bin/../lib/gcc/m68k-elf/4.2.1/../../../../m68k-elf/lib/m5208\libc.a(lib_a-fread.o)
                              d:/nburn/gcc-m68k/bin/../lib/gcc/m68k-elf/4.2.1/../../../../m68k-elf/lib/m5208\libc.a(lib_a-vfscanf.o) (fread)
d:/nburn/gcc-m68k/bin/../lib/gcc/m68k-elf/4.2.1/../../../../m68k-elf/lib/m5208\libc.a(lib_a-freer.o)
                              d:/nburn/gcc-m68k/bin/../lib/gcc/m68k-elf/4.2.1/../../../../m68k-elf/lib/m5208\libc.a(lib_a-fvwrite.o) (_free_r)
d:/nburn/gcc-m68k/bin/../lib/gcc/m68k-elf/4.2.1/../../../../m68k-elf/lib/m5208\libc.a(lib_a-fwalk.o)
                              d:/nburn/gcc-m68k/bin/../lib/gcc/m68k-elf/4.2.1/../../../../m68k-elf/lib/m5208\libc.a(lib_a-fflush.o) (_fwalk)
d:/nburn/gcc-m68k/bin/../lib/gcc/m68k-elf/4.2.1/../../../../m68k-elf/lib/m5208\libc.a(lib_a-iswspace.o)
                              d:/nburn/gcc-m68k/bin/../lib/gcc/m68k-elf/4.2.1/../../../../m68k-elf/lib/m5208\libc.a(lib_a-vfscanf.o) (iswspace)
d:/nburn/gcc-m68k/bin/../lib/gcc/m68k-elf/4.2.1/../../../../m68k-elf/lib/m5208\libc.a(lib_a-locale.o)
                              d:/nburn/gcc-m68k/bin/../lib/gcc/m68k-elf/4.2.1/../../../../m68k-elf/lib/m5208\libc.a(lib_a-vfprintf.o) (localeconv)
d:/nburn/gcc-m68k/bin/../lib/gcc/m68k-elf/4.2.1/../../../../m68k-elf/lib/m5208\libc.a(lib_a-makebuf.o)
                              d:/nburn/gcc-m68k/bin/../lib/gcc/m68k-elf/4.2.1/../../../../m68k-elf/lib/m5208\libc.a(lib_a-wsetup.o) (__smakebuf)
d:/nburn/gcc-m68k/bin/../lib/gcc/m68k-elf/4.2.1/../../../../m68k-elf/lib/m5208\libc.a(lib_a-mbrtowc.o)
                              d:/nburn/gcc-m68k/bin/../lib/gcc/m68k-elf/4.2.1/../../../../m68k-elf/lib/m5208\libc.a(lib_a-vfscanf.o) (_mbrtowc_r)
d:/nburn/gcc-m68k/bin/../lib/gcc/m68k-elf/4.2.1/../../../../m68k-elf/lib/m5208\libc.a(lib_a-mbtowc_r.o)
                              d:/nburn/gcc-m68k/bin/../lib/gcc/m68k-elf/4.2.1/../../../../m68k-elf/lib/m5208\libc.a(lib_a-mbrtowc.o) (_mbtowc_r)
d:/nburn/gcc-m68k/bin/../lib/gcc/m68k-elf/4.2.1/../../../../m68k-elf/lib/m5208\libc.a(lib_a-mprec.o)
                              d:/nburn/gcc-m68k/bin/../lib/gcc/m68k-elf/4.2.1/../../../../m68k-elf/lib/m5208\libc.a(lib_a-dtoa.o) (__hi0bits)
d:/nburn/gcc-m68k/bin/../lib/gcc/m68k-elf/4.2.1/../../../../m68k-elf/lib/m5208\libc.a(lib_a-refill.o)
                              d:/nburn/gcc-m68k/bin/../lib/gcc/m68k-elf/4.2.1/../../../../m68k-elf/lib/m5208\libc.a(lib_a-rget.o) (__srefill_r)
d:/nburn/gcc-m68k/bin/../lib/gcc/m68k-elf/4.2.1/../../../../m68k-elf/lib/m5208\libc.a(lib_a-sccl.o)
                              d:/nburn/gcc-m68k/bin/../lib/gcc/m68k-elf/4.2.1/../../../../m68k-elf/lib/m5208\libc.a(lib_a-vfscanf.o) (__sccl)
d:/nburn/gcc-m68k/bin/../lib/gcc/m68k-elf/4.2.1/../../../../m68k-elf/lib/m5208\libc.a(lib_a-sf_nan.o)
                              d:/nburn/gcc-m68k/bin/../lib/gcc/m68k-elf/4.2.1/../../../../m68k-elf/lib/m5208\libc.a(lib_a-vfscanf.o) (nanf)
d:/nburn/gcc-m68k/bin/../lib/gcc/m68k-elf/4.2.1/../../../../m68k-elf/lib/m5208\libc.a(lib_a-s_isinfd.o)
                              d:/nburn/gcc-m68k/bin/../lib/gcc/m68k-elf/4.2.1/../../../../m68k-elf/lib/m5208\libc.a(lib_a-vfprintf.o) (__isinfd)
d:/nburn/gcc-m68k/bin/../lib/gcc/m68k-elf/4.2.1/../../../../m68k-elf/lib/m5208\libc.a(lib_a-s_isnand.o)
                              d:/nburn/gcc-m68k/bin/../lib/gcc/m68k-elf/4.2.1/../../../../m68k-elf/lib/m5208\libc.a(lib_a-vfprintf.o) (__isnand)
d:/nburn/gcc-m68k/bin/../lib/gcc/m68k-elf/4.2.1/../../../../m68k-elf/lib/m5208\libc.a(lib_a-stdio.o)
                              d:/nburn/gcc-m68k/bin/../lib/gcc/m68k-elf/4.2.1/../../../../m68k-elf/lib/m5208\libc.a(lib_a-findfp.o) (__sclose)
d:/nburn/gcc-m68k/bin/../lib/gcc/m68k-elf/4.2.1/../../../../m68k-elf/lib/m5208\libc.a(lib_a-strtod.o)
                              d:/nburn/gcc-m68k/bin/../lib/gcc/m68k-elf/4.2.1/../../../../m68k-elf/lib/m5208\libc.a(lib_a-vfscanf.o) (_strtod_r)
d:/nburn/gcc-m68k/bin/../lib/gcc/m68k-elf/4.2.1/../../../../m68k-elf/lib/m5208\libc.a(lib_a-strtoll_r.o)
                              d:/nburn/gcc-m68k/bin/../lib/gcc/m68k-elf/4.2.1/../../../../m68k-elf/lib/m5208\libc.a(lib_a-vfscanf.o) (_strtoll_r)
d:/nburn/gcc-m68k/bin/../lib/gcc/m68k-elf/4.2.1/../../../../m68k-elf/lib/m5208\libc.a(lib_a-strtol.o)
                              d:/nburn/gcc-m68k/bin/../lib/gcc/m68k-elf/4.2.1/../../../../m68k-elf/lib/m5208\libc.a(lib_a-vfscanf.o) (_strtol_r)
d:/nburn/gcc-m68k/bin/../lib/gcc/m68k-elf/4.2.1/../../../../m68k-elf/lib/m5208\libc.a(lib_a-strtoull_r.o)
                              d:/nburn/gcc-m68k/bin/../lib/gcc/m68k-elf/4.2.1/../../../../m68k-elf/lib/m5208\libc.a(lib_a-vfscanf.o) (_strtoull_r)
d:/nburn/gcc-m68k/bin/../lib/gcc/m68k-elf/4.2.1/../../../../m68k-elf/lib/m5208\libc.a(lib_a-ungetc.o)
                              d:/nburn/gcc-m68k/bin/../lib/gcc/m68k-elf/4.2.1/../../../../m68k-elf/lib/m5208\libc.a(lib_a-vfscanf.o) (ungetc)
d:/nburn/gcc-m68k/bin/../lib/gcc/m68k-elf/4.2.1/../../../../m68k-elf/lib/m5208\libc.a(lib_a-writer.o)
                              d:/nburn/gcc-m68k/bin/../lib/gcc/m68k-elf/4.2.1/../../../../m68k-elf/lib/m5208\libc.a(lib_a-stdio.o) (_write_r)
d:/nburn/gcc-m68k/bin/../lib/gcc/m68k-elf/4.2.1/../../../../m68k-elf/lib/m5208\libc.a(lib_a-callocr.o)
                              d:/nburn/gcc-m68k/bin/../lib/gcc/m68k-elf/4.2.1/../../../../m68k-elf/lib/m5208\libc.a(lib_a-mprec.o) (_calloc_r)
d:/nburn/gcc-m68k/bin/../lib/gcc/m68k-elf/4.2.1/../../../../m68k-elf/lib/m5208\libc.a(lib_a-closer.o)
                              d:/nburn/gcc-m68k/bin/../lib/gcc/m68k-elf/4.2.1/../../../../m68k-elf/lib/m5208\libc.a(lib_a-stdio.o) (_close_r)
d:/nburn/gcc-m68k/bin/../lib/gcc/m68k-elf/4.2.1/../../../../m68k-elf/lib/m5208\libc.a(lib_a-fclose.o)
                              d:/nburn/gcc-m68k/bin/../lib/gcc/m68k-elf/4.2.1/../../../../m68k-elf/lib/m5208\libc.a(lib_a-findfp.o) (fclose)
d:/nburn/gcc-m68k/bin/../lib/gcc/m68k-elf/4.2.1/../../../../m68k-elf/lib/m5208\libc.a(lib_a-fstatr.o)
                              d:/nburn/gcc-m68k/bin/../lib/gcc/m68k-elf/4.2.1/../../../../m68k-elf/lib/m5208\libc.a(lib_a-makebuf.o) (_fstat_r)
d:/nburn/gcc-m68k/bin/../lib/gcc/m68k-elf/4.2.1/../../../../m68k-elf/lib/m5208\libc.a(lib_a-gdtoa-gethex.o)
                              d:/nburn/gcc-m68k/bin/../lib/gcc/m68k-elf/4.2.1/../../../../m68k-elf/lib/m5208\libc.a(lib_a-strtod.o) (__gethex)
d:/nburn/gcc-m68k/bin/../lib/gcc/m68k-elf/4.2.1/../../../../m68k-elf/lib/m5208\libc.a(lib_a-gdtoa-hexnan.o)
                              d:/nburn/gcc-m68k/bin/../lib/gcc/m68k-elf/4.2.1/../../../../m68k-elf/lib/m5208\libc.a(lib_a-strtod.o) (__hexnan)
d:/nburn/gcc-m68k/bin/../lib/gcc/m68k-elf/4.2.1/../../../../m68k-elf/lib/m5208\libc.a(lib_a-lseekr.o)
                              d:/nburn/gcc-m68k/bin/../lib/gcc/m68k-elf/4.2.1/../../../../m68k-elf/lib/m5208\libc.a(lib_a-stdio.o) (_lseek_r)
d:/nburn/gcc-m68k/bin/../lib/gcc/m68k-elf/4.2.1/../../../../m68k-elf/lib/m5208\libc.a(lib_a-readr.o)
                              d:/nburn/gcc-m68k/bin/../lib/gcc/m68k-elf/4.2.1/../../../../m68k-elf/lib/m5208\libc.a(lib_a-stdio.o) (_read_r)
d:/nburn/gcc-m68k/bin/../lib/gcc/m68k-elf/4.2.1/m5208\libgcc.a(_eqdf2.o)
                              d:/nburn/gcc-m68k/bin/../lib/gcc/m68k-elf/4.2.1/../../../../m68k-elf/lib/m5208\libc.a(lib_a-vfprintf.o) (__eqdf2)
d:/nburn/gcc-m68k/bin/../lib/gcc/m68k-elf/4.2.1/m5208\libgcc.a(_nedf2.o)
                              d:/nburn/gcc-m68k/bin/../lib/gcc/m68k-elf/4.2.1/../../../../m68k-elf/lib/m5208\libc.a(lib_a-vfprintf.o) (__nedf2)
d:/nburn/gcc-m68k/bin/../lib/gcc/m68k-elf/4.2.1/m5208\libgcc.a(_gtdf2.o)
                              d:/nburn/gcc-m68k/bin/../lib/gcc/m68k-elf/4.2.1/../../../../m68k-elf/lib/m5208\libc.a(lib_a-dtoa.o) (__gtdf2)
d:/nburn/gcc-m68k/bin/../lib/gcc/m68k-elf/4.2.1/m5208\libgcc.a(_ledf2.o)
                              d:/nburn/gcc-m68k/bin/../lib/gcc/m68k-elf/4.2.1/../../../../m68k-elf/lib/m5208\libc.a(lib_a-strtod.o) (__ledf2)
d:/nburn/gcc-m68k/bin/../lib/gcc/m68k-elf/4.2.1/m5208\libgcc.a(_nesf2.o)
                              d:/nburn/gcc-m68k/bin/../lib/gcc/m68k-elf/4.2.1/../../../../m68k-elf/lib/m5208\libc.a(lib_a-strtod.o) (__nesf2)
d:/nburn/gcc-m68k/bin/../lib/gcc/m68k-elf/4.2.1/m5208\libgcc.a(_gtsf2.o)
                              d:/nburn/gcc-m68k/bin/../lib/gcc/m68k-elf/4.2.1/../../../../m68k-elf/lib/m5208\libc.a(lib_a-strtod.o) (__gtsf2)
d:/nburn/gcc-m68k/bin/../lib/gcc/m68k-elf/4.2.1/m5208\libgcc.a(_ltsf2.o)
                              d:/nburn/gcc-m68k/bin/../lib/gcc/m68k-elf/4.2.1/../../../../m68k-elf/lib/m5208\libc.a(lib_a-strtod.o) (__ltsf2)
d:/nburn/gcc-m68k/bin/../lib/gcc/m68k-elf/4.2.1/m5208\libgcc.a(_udivdi3.o)
                              d:/nburn/gcc-m68k/bin/../lib/gcc/m68k-elf/4.2.1/../../../../m68k-elf/lib/m5208\libc.a(lib_a-vfiprintf.o) (__udivdi3)
d:/nburn/gcc-m68k/bin/../lib/gcc/m68k-elf/4.2.1/m5208\libgcc.a(_umoddi3.o)
                              d:/nburn/gcc-m68k/bin/../lib/gcc/m68k-elf/4.2.1/../../../../m68k-elf/lib/m5208\libc.a(lib_a-vfiprintf.o) (__umoddi3)
d:/nburn/gcc-m68k/bin/../lib/gcc/m68k-elf/4.2.1/m5208\libgcc.a(_float.o)
                              d:/nburn/gcc-m68k/bin/../lib/gcc/m68k-elf/4.2.1/m5208\libgcc.a(_nesf2.o) (__cmpsf2_internal)

Allocating common symbols
Common symbol       size              file

NotifyUpdatePtr     0x4               D:\nburn\lib\NetBurner.a(system.o)
errno               0x4               D:\nburn\lib\MOD5270.a(bsp.o)
TERR_REGISTER       0x1               D:\nburn\lib\MOD5270.a(bsp.o)
heap_ptr            0x4               D:\nburn\lib\MOD5270.a(bsp.o)
__hexdig            0x100             d:/nburn/gcc-m68k/bin/../lib/gcc/m68k-elf/4.2.1/../../../../m68k-elf/lib/m5208\libc.a(lib_a-gdtoa-gethex.o)
tpmr                0x4               D:\nburn\lib\MOD5270.a(bsp.o)
OSIdleTaskStk       0x2000            D:\nburn\lib\NetBurner.a(ucosmain.o)
PlatformName        0x4               D:\nburn\lib\MOD5270.a(bsp.o)
rnd_collect         0x200             D:\nburn\lib\NetBurner.a(system.o)
CPU_CLOCK           0x4               D:\nburn\lib\MOD5270.a(bsp.o)
config_rec_buf      0x800             D:\nburn\lib\NetBurner.a(system.o)

Discarded input sections

 _ZNKSs7_M_dataEv
                0x00000000        0x0 d:/nburn/gcc-m68k/bin/../lib/gcc/m68k-elf/4.2.1/../../../../m68k-elf/lib/m5208\libstdc++.a(string-inst.o)
 _ZNSs7_M_dataEPc
                0x00000000        0x0 d:/nburn/gcc-m68k/bin/../lib/gcc/m68k-elf/4.2.1/../../../../m68k-elf/lib/m5208\libstdc++.a(string-inst.o)
 _ZNKSs6_M_repEv
                0x00000000        0x0 d:/nburn/gcc-m68k/bin/../lib/gcc/m68k-elf/4.2.1/../../../../m68k-elf/lib/m5208\libstdc++.a(string-inst.o)
 _ZNKSs9_M_ibeginEv
                0x00000000        0x0 d:/nburn/gcc-m68k/bin/../lib/gcc/m68k-elf/4.2.1/../../../../m68k-elf/lib/m5208\libstdc++.a(string-inst.o)
 _ZNKSs7_M_iendEv
                0x00000000        0x0 d:/nburn/gcc-m68k/bin/../lib/gcc/m68k-elf/4.2.1/../../../../m68k-elf/lib/m5208\libstdc++.a(string-inst.o)
 _ZNKSs8_M_limitEmm
                0x00000000        0x0 d:/nburn/gcc-m68k/bin/../lib/gcc/m68k-elf/4.2.1/../../../../m68k-elf/lib/m5208\libstdc++.a(string-inst.o)
 _ZNKSs11_M_disjunctEPKc
                0x00000000        0x0 d:/nburn/gcc-m68k/bin/../lib/gcc/m68k-elf/4.2.1/../../../../m68k-elf/lib/m5208\libstdc++.a(string-inst.o)
 _ZNSs12_S_empty_repEv
                0x00000000        0x0 d:/nburn/gcc-m68k/bin/../lib/gcc/m68k-elf/4.2.1/../../../../m68k-elf/lib/m5208\libstdc++.a(string-inst.o)
 _ZNSsC1Ev      0x00000000        0x0 d:/nburn/gcc-m68k/bin/../lib/gcc/m68k-elf/4.2.1/../../../../m68k-elf/lib/m5208\libstdc++.a(string-inst.o)
 _ZNKSs5beginEv
                0x00000000        0x0 d:/nburn/gcc-m68k/bin/../lib/gcc/m68k-elf/4.2.1/../../../../m68k-elf/lib/m5208\libstdc++.a(string-inst.o)
 _ZNKSs3endEv   0x00000000        0x0 d:/nburn/gcc-m68k/bin/../lib/gcc/m68k-elf/4.2.1/../../../../m68k-elf/lib/m5208\libstdc++.a(string-inst.o)
 _ZNKSs4sizeEv  0x00000000        0x0 d:/nburn/gcc-m68k/bin/../lib/gcc/m68k-elf/4.2.1/../../../../m68k-elf/lib/m5208\libstdc++.a(string-inst.o)
 _ZNKSs8max_sizeEv
                0x00000000        0x0 d:/nburn/gcc-m68k/bin/../lib/gcc/m68k-elf/4.2.1/../../../../m68k-elf/lib/m5208\libstdc++.a(string-inst.o)
 _ZNKSs8capacityEv
                0x00000000        0x0 d:/nburn/gcc-m68k/bin/../lib/gcc/m68k-elf/4.2.1/../../../../m68k-elf/lib/m5208\libstdc++.a(string-inst.o)
 _ZNKSs4dataEv  0x00000000        0x0 d:/nburn/gcc-m68k/bin/../lib/gcc/m68k-elf/4.2.1/../../../../m68k-elf/lib/m5208\libstdc++.a(string-inst.o)
 _ZNKSs13get_allocatorEv
                0x00000000        0x0 d:/nburn/gcc-m68k/bin/../lib/gcc/m68k-elf/4.2.1/../../../../m68k-elf/lib/m5208\libstdc++.a(string-inst.o)
 _ZNSs12_Alloc_hiderC1EPcRKSaIcE
                0x00000000        0x0 d:/nburn/gcc-m68k/bin/../lib/gcc/m68k-elf/4.2.1/../../../../m68k-elf/lib/m5208\libstdc++.a(string-inst.o)
 _ZNSs4_Rep12_S_empty_repEv
                0x00000000        0x0 d:/nburn/gcc-m68k/bin/../lib/gcc/m68k-elf/4.2.1/../../../../m68k-elf/lib/m5208\libstdc++.a(string-inst.o)
 _ZNKSs4_Rep12_M_is_leakedEv
                0x00000000        0x0 d:/nburn/gcc-m68k/bin/../lib/gcc/m68k-elf/4.2.1/../../../../m68k-elf/lib/m5208\libstdc++.a(string-inst.o)
 _ZNKSs4_Rep12_M_is_sharedEv
                0x00000000        0x0 d:/nburn/gcc-m68k/bin/../lib/gcc/m68k-elf/4.2.1/../../../../m68k-elf/lib/m5208\libstdc++.a(string-inst.o)
 _ZNSs4_Rep13_M_set_leakedEv
                0x00000000        0x0 d:/nburn/gcc-m68k/bin/../lib/gcc/m68k-elf/4.2.1/../../../../m68k-elf/lib/m5208\libstdc++.a(string-inst.o)
 _ZNSs4_Rep15_M_set_sharableEv
                0x00000000        0x0 d:/nburn/gcc-m68k/bin/../lib/gcc/m68k-elf/4.2.1/../../../../m68k-elf/lib/m5208\libstdc++.a(string-inst.o)
 _ZNSs4_Rep26_M_set_length_and_sharableEm
                0x00000000        0x0 d:/nburn/gcc-m68k/bin/../lib/gcc/m68k-elf/4.2.1/../../../../m68k-elf/lib/m5208\libstdc++.a(string-inst.o)
 _ZNSs4_Rep10_M_refdataEv
                0x00000000        0x0 d:/nburn/gcc-m68k/bin/../lib/gcc/m68k-elf/4.2.1/../../../../m68k-elf/lib/m5208\libstdc++.a(string-inst.o)
 _ZN9__gnu_cxxeqIPcSsEEbRKNS_17__normal_iteratorIT_T0_EES7_
                0x00000000        0x0 d:/nburn/gcc-m68k/bin/../lib/gcc/m68k-elf/4.2.1/../../../../m68k-elf/lib/m5208\libstdc++.a(string-inst.o)
 _ZNSs12_Alloc_hiderC2EPcRKSaIcE
                0x00000000        0x0 d:/nburn/gcc-m68k/bin/../lib/gcc/m68k-elf/4.2.1/../../../../m68k-elf/lib/m5208\libstdc++.a(string-inst.o)
 _ZNSs4_Rep10_M_refcopyEv
                0x00000000        0x0 d:/nburn/gcc-m68k/bin/../lib/gcc/m68k-elf/4.2.1/../../../../m68k-elf/lib/m5208\libstdc++.a(string-inst.o)
 _ZNKSs15_M_check_lengthEmmPKc
                0x00000000        0x0 d:/nburn/gcc-m68k/bin/../lib/gcc/m68k-elf/4.2.1/../../../../m68k-elf/lib/m5208\libstdc++.a(string-inst.o)
 _ZNKSs8_M_checkEmPKc
                0x00000000        0x0 d:/nburn/gcc-m68k/bin/../lib/gcc/m68k-elf/4.2.1/../../../../m68k-elf/lib/m5208\libstdc++.a(string-inst.o)
 _ZNSs9_M_assignEPcmc
                0x00000000        0x0 d:/nburn/gcc-m68k/bin/../lib/gcc/m68k-elf/4.2.1/../../../../m68k-elf/lib/m5208\libstdc++.a(string-inst.o)
 _ZNSs7_M_moveEPcPKcm
                0x00000000        0x0 d:/nburn/gcc-m68k/bin/../lib/gcc/m68k-elf/4.2.1/../../../../m68k-elf/lib/m5208\libstdc++.a(string-inst.o)
 _ZNSs7_M_copyEPcPKcm
                0x00000000        0x0 d:/nburn/gcc-m68k/bin/../lib/gcc/m68k-elf/4.2.1/../../../../m68k-elf/lib/m5208\libstdc++.a(string-inst.o)
 _ZNKSs5c_strEv
                0x00000000        0x0 d:/nburn/gcc-m68k/bin/../lib/gcc/m68k-elf/4.2.1/../../../../m68k-elf/lib/m5208\libstdc++.a(string-inst.o)
 _ZNKSsixEm     0x00000000        0x0 d:/nburn/gcc-m68k/bin/../lib/gcc/m68k-elf/4.2.1/../../../../m68k-elf/lib/m5208\libstdc++.a(string-inst.o)
 _ZNKSs4findEcm
                0x00000000        0x0 d:/nburn/gcc-m68k/bin/../lib/gcc/m68k-elf/4.2.1/../../../../m68k-elf/lib/m5208\libstdc++.a(string-inst.o)
 _ZNKSs13find_first_ofEcm
                0x00000000        0x0 d:/nburn/gcc-m68k/bin/../lib/gcc/m68k-elf/4.2.1/../../../../m68k-elf/lib/m5208\libstdc++.a(string-inst.o)
 _ZNKSs2atEm    0x00000000        0x0 d:/nburn/gcc-m68k/bin/../lib/gcc/m68k-elf/4.2.1/../../../../m68k-elf/lib/m5208\libstdc++.a(string-inst.o)
 _ZNKSs5emptyEv
                0x00000000        0x0 d:/nburn/gcc-m68k/bin/../lib/gcc/m68k-elf/4.2.1/../../../../m68k-elf/lib/m5208\libstdc++.a(string-inst.o)
 _ZNKSs6lengthEv
                0x00000000        0x0 d:/nburn/gcc-m68k/bin/../lib/gcc/m68k-elf/4.2.1/../../../../m68k-elf/lib/m5208\libstdc++.a(string-inst.o)
 _ZNSsC2Ev      0x00000000        0x0 d:/nburn/gcc-m68k/bin/../lib/gcc/m68k-elf/4.2.1/../../../../m68k-elf/lib/m5208\libstdc++.a(string-inst.o)
 _ZN9__gnu_cxxeqIPKcSsEEbRKNS_17__normal_iteratorIT_T0_EES8_
                0x00000000        0x0 d:/nburn/gcc-m68k/bin/../lib/gcc/m68k-elf/4.2.1/../../../../m68k-elf/lib/m5208\libstdc++.a(string-inst.o)
 _ZNKSs16find_last_not_ofEcm
                0x00000000        0x0 d:/nburn/gcc-m68k/bin/../lib/gcc/m68k-elf/4.2.1/../../../../m68k-elf/lib/m5208\libstdc++.a(string-inst.o)
 _ZNKSs17find_first_not_ofEcm
                0x00000000        0x0 d:/nburn/gcc-m68k/bin/../lib/gcc/m68k-elf/4.2.1/../../../../m68k-elf/lib/m5208\libstdc++.a(string-inst.o)
 _ZNKSs5rfindEcm
                0x00000000        0x0 d:/nburn/gcc-m68k/bin/../lib/gcc/m68k-elf/4.2.1/../../../../m68k-elf/lib/m5208\libstdc++.a(string-inst.o)
 _ZNKSs12find_last_ofEcm
                0x00000000        0x0 d:/nburn/gcc-m68k/bin/../lib/gcc/m68k-elf/4.2.1/../../../../m68k-elf/lib/m5208\libstdc++.a(string-inst.o)
 _ZNSs4_Rep9_S_createEmmRKSaIcE
                0x00000000        0x0 d:/nburn/gcc-m68k/bin/../lib/gcc/m68k-elf/4.2.1/../../../../m68k-elf/lib/m5208\libstdc++.a(string-inst.o)
 _ZNSs4_Rep10_M_destroyERKSaIcE
                0x00000000        0x0 d:/nburn/gcc-m68k/bin/../lib/gcc/m68k-elf/4.2.1/../../../../m68k-elf/lib/m5208\libstdc++.a(string-inst.o)
 _ZNSs4_Rep10_M_disposeERKSaIcE
                0x00000000        0x0 d:/nburn/gcc-m68k/bin/../lib/gcc/m68k-elf/4.2.1/../../../../m68k-elf/lib/m5208\libstdc++.a(string-inst.o)
 _ZNKSs16find_last_not_ofEPKcmm
                0x00000000        0x0 d:/nburn/gcc-m68k/bin/../lib/gcc/m68k-elf/4.2.1/../../../../m68k-elf/lib/m5208\libstdc++.a(string-inst.o)
 _ZNKSs16find_last_not_ofERKSsm
                0x00000000        0x0 d:/nburn/gcc-m68k/bin/../lib/gcc/m68k-elf/4.2.1/../../../../m68k-elf/lib/m5208\libstdc++.a(string-inst.o)
 _ZNKSs17find_first_not_ofEPKcmm
                0x00000000        0x0 d:/nburn/gcc-m68k/bin/../lib/gcc/m68k-elf/4.2.1/../../../../m68k-elf/lib/m5208\libstdc++.a(string-inst.o)
 _ZNKSs17find_first_not_ofERKSsm
                0x00000000        0x0 d:/nburn/gcc-m68k/bin/../lib/gcc/m68k-elf/4.2.1/../../../../m68k-elf/lib/m5208\libstdc++.a(string-inst.o)
 _ZNKSs12find_last_ofEPKcmm
                0x00000000        0x0 d:/nburn/gcc-m68k/bin/../lib/gcc/m68k-elf/4.2.1/../../../../m68k-elf/lib/m5208\libstdc++.a(string-inst.o)
 _ZNKSs12find_last_ofERKSsm
                0x00000000        0x0 d:/nburn/gcc-m68k/bin/../lib/gcc/m68k-elf/4.2.1/../../../../m68k-elf/lib/m5208\libstdc++.a(string-inst.o)
 _ZNKSs13find_first_ofEPKcmm
                0x00000000        0x0 d:/nburn/gcc-m68k/bin/../lib/gcc/m68k-elf/4.2.1/../../../../m68k-elf/lib/m5208\libstdc++.a(string-inst.o)
 _ZNKSs13find_first_ofERKSsm
                0x00000000        0x0 d:/nburn/gcc-m68k/bin/../lib/gcc/m68k-elf/4.2.1/../../../../m68k-elf/lib/m5208\libstdc++.a(string-inst.o)
 _ZNKSs7compareERKSs
                0x00000000        0x0 d:/nburn/gcc-m68k/bin/../lib/gcc/m68k-elf/4.2.1/../../../../m68k-elf/lib/m5208\libstdc++.a(string-inst.o)
 _ZNKSs5rfindEPKcmm
                0x00000000        0x0 d:/nburn/gcc-m68k/bin/../lib/gcc/m68k-elf/4.2.1/../../../../m68k-elf/lib/m5208\libstdc++.a(string-inst.o)
 _ZNKSs5rfindERKSsm
                0x00000000        0x0 d:/nburn/gcc-m68k/bin/../lib/gcc/m68k-elf/4.2.1/../../../../m68k-elf/lib/m5208\libstdc++.a(string-inst.o)
 _ZNKSs4findEPKcmm
                0x00000000        0x0 d:/nburn/gcc-m68k/bin/../lib/gcc/m68k-elf/4.2.1/../../../../m68k-elf/lib/m5208\libstdc++.a(string-inst.o)
 _ZNKSs4findERKSsm
                0x00000000        0x0 d:/nburn/gcc-m68k/bin/../lib/gcc/m68k-elf/4.2.1/../../../../m68k-elf/lib/m5208\libstdc++.a(string-inst.o)
 _ZNKSs7compareEPKc
                0x00000000        0x0 d:/nburn/gcc-m68k/bin/../lib/gcc/m68k-elf/4.2.1/../../../../m68k-elf/lib/m5208\libstdc++.a(string-inst.o)
 _ZNKSs16find_last_not_ofEPKcm
                0x00000000        0x0 d:/nburn/gcc-m68k/bin/../lib/gcc/m68k-elf/4.2.1/../../../../m68k-elf/lib/m5208\libstdc++.a(string-inst.o)
 _ZNKSs17find_first_not_ofEPKcm
                0x00000000        0x0 d:/nburn/gcc-m68k/bin/../lib/gcc/m68k-elf/4.2.1/../../../../m68k-elf/lib/m5208\libstdc++.a(string-inst.o)
 _ZNKSs12find_last_ofEPKcm
                0x00000000        0x0 d:/nburn/gcc-m68k/bin/../lib/gcc/m68k-elf/4.2.1/../../../../m68k-elf/lib/m5208\libstdc++.a(string-inst.o)
 _ZNKSs13find_first_ofEPKcm
                0x00000000        0x0 d:/nburn/gcc-m68k/bin/../lib/gcc/m68k-elf/4.2.1/../../../../m68k-elf/lib/m5208\libstdc++.a(string-inst.o)
 _ZNKSs5rfindEPKcm
                0x00000000        0x0 d:/nburn/gcc-m68k/bin/../lib/gcc/m68k-elf/4.2.1/../../../../m68k-elf/lib/m5208\libstdc++.a(string-inst.o)
 _ZNKSs4findEPKcm
                0x00000000        0x0 d:/nburn/gcc-m68k/bin/../lib/gcc/m68k-elf/4.2.1/../../../../m68k-elf/lib/m5208\libstdc++.a(string-inst.o)
 _ZNKSs4rendEv  0x00000000        0x0 d:/nburn/gcc-m68k/bin/../lib/gcc/m68k-elf/4.2.1/../../../../m68k-elf/lib/m5208\libstdc++.a(string-inst.o)
 _ZNKSs6rbeginEv
                0x00000000        0x0 d:/nburn/gcc-m68k/bin/../lib/gcc/m68k-elf/4.2.1/../../../../m68k-elf/lib/m5208\libstdc++.a(string-inst.o)
 _ZNSs12_S_constructEmcRKSaIcE
                0x00000000        0x0 d:/nburn/gcc-m68k/bin/../lib/gcc/m68k-elf/4.2.1/../../../../m68k-elf/lib/m5208\libstdc++.a(string-inst.o)
 _ZNSsC1EmcRKSaIcE
                0x00000000        0x0 d:/nburn/gcc-m68k/bin/../lib/gcc/m68k-elf/4.2.1/../../../../m68k-elf/lib/m5208\libstdc++.a(string-inst.o)
 _ZNSsC2EmcRKSaIcE
                0x00000000        0x0 d:/nburn/gcc-m68k/bin/../lib/gcc/m68k-elf/4.2.1/../../../../m68k-elf/lib/m5208\libstdc++.a(string-inst.o)
 _ZNSsC1ERKSaIcE
                0x00000000        0x0 d:/nburn/gcc-m68k/bin/../lib/gcc/m68k-elf/4.2.1/../../../../m68k-elf/lib/m5208\libstdc++.a(string-inst.o)
 _ZNSsC2ERKSaIcE
                0x00000000        0x0 d:/nburn/gcc-m68k/bin/../lib/gcc/m68k-elf/4.2.1/../../../../m68k-elf/lib/m5208\libstdc++.a(string-inst.o)
 _ZNKSs7compareEmmPKcm
                0x00000000        0x0 d:/nburn/gcc-m68k/bin/../lib/gcc/m68k-elf/4.2.1/../../../../m68k-elf/lib/m5208\libstdc++.a(string-inst.o)
 _ZNKSs7compareEmmPKc
                0x00000000        0x0 d:/nburn/gcc-m68k/bin/../lib/gcc/m68k-elf/4.2.1/../../../../m68k-elf/lib/m5208\libstdc++.a(string-inst.o)
 _ZNKSs7compareEmmRKSsmm
                0x00000000        0x0 d:/nburn/gcc-m68k/bin/../lib/gcc/m68k-elf/4.2.1/../../../../m68k-elf/lib/m5208\libstdc++.a(string-inst.o)
 _ZNKSs7compareEmmRKSs
                0x00000000        0x0 d:/nburn/gcc-m68k/bin/../lib/gcc/m68k-elf/4.2.1/../../../../m68k-elf/lib/m5208\libstdc++.a(string-inst.o)
 _ZNSsD1Ev      0x00000000        0x0 d:/nburn/gcc-m68k/bin/../lib/gcc/m68k-elf/4.2.1/../../../../m68k-elf/lib/m5208\libstdc++.a(string-inst.o)
 _ZNSsD2Ev      0x00000000        0x0 d:/nburn/gcc-m68k/bin/../lib/gcc/m68k-elf/4.2.1/../../../../m68k-elf/lib/m5208\libstdc++.a(string-inst.o)
 _ZNSs13_S_copy_charsEPcS_S_
                0x00000000        0x0 d:/nburn/gcc-m68k/bin/../lib/gcc/m68k-elf/4.2.1/../../../../m68k-elf/lib/m5208\libstdc++.a(string-inst.o)
 _ZNSs4_Rep8_M_cloneERKSaIcEm
                0x00000000        0x0 d:/nburn/gcc-m68k/bin/../lib/gcc/m68k-elf/4.2.1/../../../../m68k-elf/lib/m5208\libstdc++.a(string-inst.o)
 _ZNSs4_Rep7_M_grabERKSaIcES2_
                0x00000000        0x0 d:/nburn/gcc-m68k/bin/../lib/gcc/m68k-elf/4.2.1/../../../../m68k-elf/lib/m5208\libstdc++.a(string-inst.o)
 _ZNSs7reserveEm
                0x00000000        0x0 d:/nburn/gcc-m68k/bin/../lib/gcc/m68k-elf/4.2.1/../../../../m68k-elf/lib/m5208\libstdc++.a(string-inst.o)
 _ZNSs9push_backEc
                0x00000000        0x0 d:/nburn/gcc-m68k/bin/../lib/gcc/m68k-elf/4.2.1/../../../../m68k-elf/lib/m5208\libstdc++.a(string-inst.o)
 _ZNSs6appendEmc
                0x00000000        0x0 d:/nburn/gcc-m68k/bin/../lib/gcc/m68k-elf/4.2.1/../../../../m68k-elf/lib/m5208\libstdc++.a(string-inst.o)
 _ZNSspLEc      0x00000000        0x0 d:/nburn/gcc-m68k/bin/../lib/gcc/m68k-elf/4.2.1/../../../../m68k-elf/lib/m5208\libstdc++.a(string-inst.o)
 _ZNSs6appendEPKcm
                0x00000000        0x0 d:/nburn/gcc-m68k/bin/../lib/gcc/m68k-elf/4.2.1/../../../../m68k-elf/lib/m5208\libstdc++.a(string-inst.o)
 _ZNSs6appendEPKc
                0x00000000        0x0 d:/nburn/gcc-m68k/bin/../lib/gcc/m68k-elf/4.2.1/../../../../m68k-elf/lib/m5208\libstdc++.a(string-inst.o)
 _ZNSspLEPKc    0x00000000        0x0 d:/nburn/gcc-m68k/bin/../lib/gcc/m68k-elf/4.2.1/../../../../m68k-elf/lib/m5208\libstdc++.a(string-inst.o)
 _ZNSs6appendERKSsmm
                0x00000000        0x0 d:/nburn/gcc-m68k/bin/../lib/gcc/m68k-elf/4.2.1/../../../../m68k-elf/lib/m5208\libstdc++.a(string-inst.o)
 _ZNSs6appendERKSs
                0x00000000        0x0 d:/nburn/gcc-m68k/bin/../lib/gcc/m68k-elf/4.2.1/../../../../m68k-elf/lib/m5208\libstdc++.a(string-inst.o)
 _ZNSspLERKSs   0x00000000        0x0 d:/nburn/gcc-m68k/bin/../lib/gcc/m68k-elf/4.2.1/../../../../m68k-elf/lib/m5208\libstdc++.a(string-inst.o)
 _ZNSs9_M_mutateEmmm
                0x00000000        0x0 d:/nburn/gcc-m68k/bin/../lib/gcc/m68k-elf/4.2.1/../../../../m68k-elf/lib/m5208\libstdc++.a(string-inst.o)
 _ZNSs14_M_replace_auxEmmmc
                0x00000000        0x0 d:/nburn/gcc-m68k/bin/../lib/gcc/m68k-elf/4.2.1/../../../../m68k-elf/lib/m5208\libstdc++.a(string-inst.o)
 _ZNSs7replaceEN9__gnu_cxx17__normal_iteratorIPcSsEES2_mc
                0x00000000        0x0 d:/nburn/gcc-m68k/bin/../lib/gcc/m68k-elf/4.2.1/../../../../m68k-elf/lib/m5208\libstdc++.a(string-inst.o)
 _ZNSs7replaceEmmmc
                0x00000000        0x0 d:/nburn/gcc-m68k/bin/../lib/gcc/m68k-elf/4.2.1/../../../../m68k-elf/lib/m5208\libstdc++.a(string-inst.o)
 _ZNSs6insertEN9__gnu_cxx17__normal_iteratorIPcSsEEc
                0x00000000        0x0 d:/nburn/gcc-m68k/bin/../lib/gcc/m68k-elf/4.2.1/../../../../m68k-elf/lib/m5208\libstdc++.a(string-inst.o)
 _ZNSs6insertEmmc
                0x00000000        0x0 d:/nburn/gcc-m68k/bin/../lib/gcc/m68k-elf/4.2.1/../../../../m68k-elf/lib/m5208\libstdc++.a(string-inst.o)
 _ZNSs6assignEmc
                0x00000000        0x0 d:/nburn/gcc-m68k/bin/../lib/gcc/m68k-elf/4.2.1/../../../../m68k-elf/lib/m5208\libstdc++.a(string-inst.o)
 _ZNSsaSEc      0x00000000        0x0 d:/nburn/gcc-m68k/bin/../lib/gcc/m68k-elf/4.2.1/../../../../m68k-elf/lib/m5208\libstdc++.a(string-inst.o)
 _ZNSs6insertEN9__gnu_cxx17__normal_iteratorIPcSsEEmc
                0x00000000        0x0 d:/nburn/gcc-m68k/bin/../lib/gcc/m68k-elf/4.2.1/../../../../m68k-elf/lib/m5208\libstdc++.a(string-inst.o)
 _ZNSs5eraseEN9__gnu_cxx17__normal_iteratorIPcSsEES2_
                0x00000000        0x0 d:/nburn/gcc-m68k/bin/../lib/gcc/m68k-elf/4.2.1/../../../../m68k-elf/lib/m5208\libstdc++.a(string-inst.o)
 _ZNSs5eraseEN9__gnu_cxx17__normal_iteratorIPcSsEE
                0x00000000        0x0 d:/nburn/gcc-m68k/bin/../lib/gcc/m68k-elf/4.2.1/../../../../m68k-elf/lib/m5208\libstdc++.a(string-inst.o)
 _ZNSs5eraseEmm
                0x00000000        0x0 d:/nburn/gcc-m68k/bin/../lib/gcc/m68k-elf/4.2.1/../../../../m68k-elf/lib/m5208\libstdc++.a(string-inst.o)
 _ZNSs5clearEv  0x00000000        0x0 d:/nburn/gcc-m68k/bin/../lib/gcc/m68k-elf/4.2.1/../../../../m68k-elf/lib/m5208\libstdc++.a(string-inst.o)
 _ZNSs12_M_leak_hardEv
                0x00000000        0x0 d:/nburn/gcc-m68k/bin/../lib/gcc/m68k-elf/4.2.1/../../../../m68k-elf/lib/m5208\libstdc++.a(string-inst.o)
 _ZNSs7_M_leakEv
                0x00000000        0x0 d:/nburn/gcc-m68k/bin/../lib/gcc/m68k-elf/4.2.1/../../../../m68k-elf/lib/m5208\libstdc++.a(string-inst.o)
 _ZNSs2atEm     0x00000000        0x0 d:/nburn/gcc-m68k/bin/../lib/gcc/m68k-elf/4.2.1/../../../../m68k-elf/lib/m5208\libstdc++.a(string-inst.o)
 _ZNSsixEm      0x00000000        0x0 d:/nburn/gcc-m68k/bin/../lib/gcc/m68k-elf/4.2.1/../../../../m68k-elf/lib/m5208\libstdc++.a(string-inst.o)
 _ZNSs3endEv    0x00000000        0x0 d:/nburn/gcc-m68k/bin/../lib/gcc/m68k-elf/4.2.1/../../../../m68k-elf/lib/m5208\libstdc++.a(string-inst.o)
 _ZNSs5beginEv  0x00000000        0x0 d:/nburn/gcc-m68k/bin/../lib/gcc/m68k-elf/4.2.1/../../../../m68k-elf/lib/m5208\libstdc++.a(string-inst.o)
 _ZNSs4rendEv   0x00000000        0x0 d:/nburn/gcc-m68k/bin/../lib/gcc/m68k-elf/4.2.1/../../../../m68k-elf/lib/m5208\libstdc++.a(string-inst.o)
 _ZNSs6rbeginEv
                0x00000000        0x0 d:/nburn/gcc-m68k/bin/../lib/gcc/m68k-elf/4.2.1/../../../../m68k-elf/lib/m5208\libstdc++.a(string-inst.o)
 _ZNSs6resizeEmc
                0x00000000        0x0 d:/nburn/gcc-m68k/bin/../lib/gcc/m68k-elf/4.2.1/../../../../m68k-elf/lib/m5208\libstdc++.a(string-inst.o)
 _ZNSs6resizeEm
                0x00000000        0x0 d:/nburn/gcc-m68k/bin/../lib/gcc/m68k-elf/4.2.1/../../../../m68k-elf/lib/m5208\libstdc++.a(string-inst.o)
 _ZNSs13_S_copy_charsEPcPKcS1_
                0x00000000        0x0 d:/nburn/gcc-m68k/bin/../lib/gcc/m68k-elf/4.2.1/../../../../m68k-elf/lib/m5208\libstdc++.a(string-inst.o)
 _ZNKSs4copyEPcmm
                0x00000000        0x0 d:/nburn/gcc-m68k/bin/../lib/gcc/m68k-elf/4.2.1/../../../../m68k-elf/lib/m5208\libstdc++.a(string-inst.o)
 _ZNSs15_M_replace_safeEmmPKcm
                0x00000000        0x0 d:/nburn/gcc-m68k/bin/../lib/gcc/m68k-elf/4.2.1/../../../../m68k-elf/lib/m5208\libstdc++.a(string-inst.o)
 _ZNSs6insertEmPKcm
                0x00000000        0x0 d:/nburn/gcc-m68k/bin/../lib/gcc/m68k-elf/4.2.1/../../../../m68k-elf/lib/m5208\libstdc++.a(string-inst.o)
 _ZNSs6insertEmPKc
                0x00000000        0x0 d:/nburn/gcc-m68k/bin/../lib/gcc/m68k-elf/4.2.1/../../../../m68k-elf/lib/m5208\libstdc++.a(string-inst.o)
 _ZNSs6insertEmRKSsmm
                0x00000000        0x0 d:/nburn/gcc-m68k/bin/../lib/gcc/m68k-elf/4.2.1/../../../../m68k-elf/lib/m5208\libstdc++.a(string-inst.o)
 _ZNSs6insertEmRKSs
                0x00000000        0x0 d:/nburn/gcc-m68k/bin/../lib/gcc/m68k-elf/4.2.1/../../../../m68k-elf/lib/m5208\libstdc++.a(string-inst.o)
 _ZNSs6assignEPKcm
                0x00000000        0x0 d:/nburn/gcc-m68k/bin/../lib/gcc/m68k-elf/4.2.1/../../../../m68k-elf/lib/m5208\libstdc++.a(string-inst.o)
 _ZNSs6assignEPKc
                0x00000000        0x0 d:/nburn/gcc-m68k/bin/../lib/gcc/m68k-elf/4.2.1/../../../../m68k-elf/lib/m5208\libstdc++.a(string-inst.o)
 _ZNSs6assignERKSsmm
                0x00000000        0x0 d:/nburn/gcc-m68k/bin/../lib/gcc/m68k-elf/4.2.1/../../../../m68k-elf/lib/m5208\libstdc++.a(string-inst.o)
 _ZNSsaSEPKc    0x00000000        0x0 d:/nburn/gcc-m68k/bin/../lib/gcc/m68k-elf/4.2.1/../../../../m68k-elf/lib/m5208\libstdc++.a(string-inst.o)
 _ZNSs13_S_copy_charsEPcN9__gnu_cxx17__normal_iteratorIPKcSsEES4_
                0x00000000        0x0 d:/nburn/gcc-m68k/bin/../lib/gcc/m68k-elf/4.2.1/../../../../m68k-elf/lib/m5208\libstdc++.a(string-inst.o)
 _ZNSs13_S_copy_charsEPcN9__gnu_cxx17__normal_iteratorIS_SsEES2_
                0x00000000        0x0 d:/nburn/gcc-m68k/bin/../lib/gcc/m68k-elf/4.2.1/../../../../m68k-elf/lib/m5208\libstdc++.a(string-inst.o)
 _ZNSs12_S_constructIPKcEEPcT_S3_RKSaIcESt20forward_iterator_tag
                0x00000000        0x0 d:/nburn/gcc-m68k/bin/../lib/gcc/m68k-elf/4.2.1/../../../../m68k-elf/lib/m5208\libstdc++.a(string-inst.o)
 _ZNSsC2IPKcEET_S2_RKSaIcE
                0x00000000        0x0 d:/nburn/gcc-m68k/bin/../lib/gcc/m68k-elf/4.2.1/../../../../m68k-elf/lib/m5208\libstdc++.a(string-inst.o)
 _ZNSsC1EPKcRKSaIcE
                0x00000000        0x0 d:/nburn/gcc-m68k/bin/../lib/gcc/m68k-elf/4.2.1/../../../../m68k-elf/lib/m5208\libstdc++.a(string-inst.o)
 _ZNSsC1EPKcmRKSaIcE
                0x00000000        0x0 d:/nburn/gcc-m68k/bin/../lib/gcc/m68k-elf/4.2.1/../../../../m68k-elf/lib/m5208\libstdc++.a(string-inst.o)
 _ZNSsC2EPKcmRKSaIcE
                0x00000000        0x0 d:/nburn/gcc-m68k/bin/../lib/gcc/m68k-elf/4.2.1/../../../../m68k-elf/lib/m5208\libstdc++.a(string-inst.o)
 _ZNSsC2EPKcRKSaIcE
                0x00000000        0x0 d:/nburn/gcc-m68k/bin/../lib/gcc/m68k-elf/4.2.1/../../../../m68k-elf/lib/m5208\libstdc++.a(string-inst.o)
 _ZNSsC1IPKcEET_S2_RKSaIcE
                0x00000000        0x0 d:/nburn/gcc-m68k/bin/../lib/gcc/m68k-elf/4.2.1/../../../../m68k-elf/lib/m5208\libstdc++.a(string-inst.o)
 _ZNSs12_S_constructIPcEES0_T_S1_RKSaIcESt20forward_iterator_tag
                0x00000000        0x0 d:/nburn/gcc-m68k/bin/../lib/gcc/m68k-elf/4.2.1/../../../../m68k-elf/lib/m5208\libstdc++.a(string-inst.o)
 _ZNSsC2ERKSsmm
                0x00000000        0x0 d:/nburn/gcc-m68k/bin/../lib/gcc/m68k-elf/4.2.1/../../../../m68k-elf/lib/m5208\libstdc++.a(string-inst.o)
 _ZNSsC1IPcEET_S1_RKSaIcE
                0x00000000        0x0 d:/nburn/gcc-m68k/bin/../lib/gcc/m68k-elf/4.2.1/../../../../m68k-elf/lib/m5208\libstdc++.a(string-inst.o)
 _ZNSsC2IPcEET_S1_RKSaIcE
                0x00000000        0x0 d:/nburn/gcc-m68k/bin/../lib/gcc/m68k-elf/4.2.1/../../../../m68k-elf/lib/m5208\libstdc++.a(string-inst.o)
 _ZNSsC1ERKSsmmRKSaIcE
                0x00000000        0x0 d:/nburn/gcc-m68k/bin/../lib/gcc/m68k-elf/4.2.1/../../../../m68k-elf/lib/m5208\libstdc++.a(string-inst.o)
 _ZNSsC2ERKSsmmRKSaIcE
                0x00000000        0x0 d:/nburn/gcc-m68k/bin/../lib/gcc/m68k-elf/4.2.1/../../../../m68k-elf/lib/m5208\libstdc++.a(string-inst.o)
 _ZNSsC1ERKSsmm
                0x00000000        0x0 d:/nburn/gcc-m68k/bin/../lib/gcc/m68k-elf/4.2.1/../../../../m68k-elf/lib/m5208\libstdc++.a(string-inst.o)
 _ZNKSs6substrEmm
                0x00000000        0x0 d:/nburn/gcc-m68k/bin/../lib/gcc/m68k-elf/4.2.1/../../../../m68k-elf/lib/m5208\libstdc++.a(string-inst.o)
 _ZNSs12_S_constructIN9__gnu_cxx17__normal_iteratorIPcSsEEEES2_T_S4_RKSaIcESt20forward_iterator_tag
                0x00000000        0x0 d:/nburn/gcc-m68k/bin/../lib/gcc/m68k-elf/4.2.1/../../../../m68k-elf/lib/m5208\libstdc++.a(string-inst.o)
 _ZNSsC1IN9__gnu_cxx17__normal_iteratorIPcSsEEEET_S4_RKSaIcE
                0x00000000        0x0 d:/nburn/gcc-m68k/bin/../lib/gcc/m68k-elf/4.2.1/../../../../m68k-elf/lib/m5208\libstdc++.a(string-inst.o)
 _ZNSsC2IN9__gnu_cxx17__normal_iteratorIPcSsEEEET_S4_RKSaIcE
                0x00000000        0x0 d:/nburn/gcc-m68k/bin/../lib/gcc/m68k-elf/4.2.1/../../../../m68k-elf/lib/m5208\libstdc++.a(string-inst.o)
 _ZNSsC1ERKSs   0x00000000        0x0 d:/nburn/gcc-m68k/bin/../lib/gcc/m68k-elf/4.2.1/../../../../m68k-elf/lib/m5208\libstdc++.a(string-inst.o)
 _ZNSsC2ERKSs   0x00000000        0x0 d:/nburn/gcc-m68k/bin/../lib/gcc/m68k-elf/4.2.1/../../../../m68k-elf/lib/m5208\libstdc++.a(string-inst.o)
 _ZNSs6assignERKSs
                0x00000000        0x0 d:/nburn/gcc-m68k/bin/../lib/gcc/m68k-elf/4.2.1/../../../../m68k-elf/lib/m5208\libstdc++.a(string-inst.o)
 _ZNSsaSERKSs   0x00000000        0x0 d:/nburn/gcc-m68k/bin/../lib/gcc/m68k-elf/4.2.1/../../../../m68k-elf/lib/m5208\libstdc++.a(string-inst.o)
 _ZStplIcSt11char_traitsIcESaIcEESbIT_T0_T1_ERKS6_S8_
                0x00000000        0x0 d:/nburn/gcc-m68k/bin/../lib/gcc/m68k-elf/4.2.1/../../../../m68k-elf/lib/m5208\libstdc++.a(string-inst.o)
 _ZStplIcSt11char_traitsIcESaIcEESbIT_T0_T1_ES3_RKS6_
                0x00000000        0x0 d:/nburn/gcc-m68k/bin/../lib/gcc/m68k-elf/4.2.1/../../../../m68k-elf/lib/m5208\libstdc++.a(string-inst.o)
 _ZStplIcSt11char_traitsIcESaIcEESbIT_T0_T1_EPKS3_RKS6_
                0x00000000        0x0 d:/nburn/gcc-m68k/bin/../lib/gcc/m68k-elf/4.2.1/../../../../m68k-elf/lib/m5208\libstdc++.a(string-inst.o)
 _ZNSs7replaceEmmPKcm
                0x00000000        0x0 d:/nburn/gcc-m68k/bin/../lib/gcc/m68k-elf/4.2.1/../../../../m68k-elf/lib/m5208\libstdc++.a(string-inst.o)
 _ZNSs7replaceEN9__gnu_cxx17__normal_iteratorIPcSsEES2_NS0_IPKcSsEES5_
                0x00000000        0x0 d:/nburn/gcc-m68k/bin/../lib/gcc/m68k-elf/4.2.1/../../../../m68k-elf/lib/m5208\libstdc++.a(string-inst.o)
 _ZNSs7replaceEN9__gnu_cxx17__normal_iteratorIPcSsEES2_S2_S2_
                0x00000000        0x0 d:/nburn/gcc-m68k/bin/../lib/gcc/m68k-elf/4.2.1/../../../../m68k-elf/lib/m5208\libstdc++.a(string-inst.o)
 _ZNSs7replaceEN9__gnu_cxx17__normal_iteratorIPcSsEES2_PKcS4_
                0x00000000        0x0 d:/nburn/gcc-m68k/bin/../lib/gcc/m68k-elf/4.2.1/../../../../m68k-elf/lib/m5208\libstdc++.a(string-inst.o)
 _ZNSs7replaceEN9__gnu_cxx17__normal_iteratorIPcSsEES2_S1_S1_
                0x00000000        0x0 d:/nburn/gcc-m68k/bin/../lib/gcc/m68k-elf/4.2.1/../../../../m68k-elf/lib/m5208\libstdc++.a(string-inst.o)
 _ZNSs7replaceEN9__gnu_cxx17__normal_iteratorIPcSsEES2_PKcm
                0x00000000        0x0 d:/nburn/gcc-m68k/bin/../lib/gcc/m68k-elf/4.2.1/../../../../m68k-elf/lib/m5208\libstdc++.a(string-inst.o)
 _ZNSs7replaceEmmPKc
                0x00000000        0x0 d:/nburn/gcc-m68k/bin/../lib/gcc/m68k-elf/4.2.1/../../../../m68k-elf/lib/m5208\libstdc++.a(string-inst.o)
 _ZNSs7replaceEmmRKSsmm
                0x00000000        0x0 d:/nburn/gcc-m68k/bin/../lib/gcc/m68k-elf/4.2.1/../../../../m68k-elf/lib/m5208\libstdc++.a(string-inst.o)
 _ZNSs7replaceEmmRKSs
                0x00000000        0x0 d:/nburn/gcc-m68k/bin/../lib/gcc/m68k-elf/4.2.1/../../../../m68k-elf/lib/m5208\libstdc++.a(string-inst.o)
 _ZNSs7replaceEN9__gnu_cxx17__normal_iteratorIPcSsEES2_PKc
                0x00000000        0x0 d:/nburn/gcc-m68k/bin/../lib/gcc/m68k-elf/4.2.1/../../../../m68k-elf/lib/m5208\libstdc++.a(string-inst.o)
 _ZNSs7replaceEN9__gnu_cxx17__normal_iteratorIPcSsEES2_RKSs
                0x00000000        0x0 d:/nburn/gcc-m68k/bin/../lib/gcc/m68k-elf/4.2.1/../../../../m68k-elf/lib/m5208\libstdc++.a(string-inst.o)
 _ZNSs4swapERSs
                0x00000000        0x0 d:/nburn/gcc-m68k/bin/../lib/gcc/m68k-elf/4.2.1/../../../../m68k-elf/lib/m5208\libstdc++.a(string-inst.o)
 _ZNSs4nposE    0x00000000        0x0 d:/nburn/gcc-m68k/bin/../lib/gcc/m68k-elf/4.2.1/../../../../m68k-elf/lib/m5208\libstdc++.a(string-inst.o)
 _ZNSs4_Rep11_S_max_sizeE
                0x00000000        0x0 d:/nburn/gcc-m68k/bin/../lib/gcc/m68k-elf/4.2.1/../../../../m68k-elf/lib/m5208\libstdc++.a(string-inst.o)
 _ZNSs4_Rep11_S_terminalE
                0x00000000        0x0 d:/nburn/gcc-m68k/bin/../lib/gcc/m68k-elf/4.2.1/../../../../m68k-elf/lib/m5208\libstdc++.a(string-inst.o)
 _ZNSs4_Rep20_S_empty_rep_storageE
                0x00000000        0x0 d:/nburn/gcc-m68k/bin/../lib/gcc/m68k-elf/4.2.1/../../../../m68k-elf/lib/m5208\libstdc++.a(string-inst.o)
 _ZNSt15underflow_errorD0Ev
                0x00000000        0x0 d:/nburn/gcc-m68k/bin/../lib/gcc/m68k-elf/4.2.1/../../../../m68k-elf/lib/m5208\libstdc++.a(functexcept.o)
 _ZNSt15underflow_errorD1Ev
                0x00000000        0x0 d:/nburn/gcc-m68k/bin/../lib/gcc/m68k-elf/4.2.1/../../../../m68k-elf/lib/m5208\libstdc++.a(functexcept.o)
 _ZNSt14overflow_errorD0Ev
                0x00000000        0x0 d:/nburn/gcc-m68k/bin/../lib/gcc/m68k-elf/4.2.1/../../../../m68k-elf/lib/m5208\libstdc++.a(functexcept.o)
 _ZNSt14overflow_errorD1Ev
                0x00000000        0x0 d:/nburn/gcc-m68k/bin/../lib/gcc/m68k-elf/4.2.1/../../../../m68k-elf/lib/m5208\libstdc++.a(functexcept.o)
 _ZNSt11range_errorD0Ev
                0x00000000        0x0 d:/nburn/gcc-m68k/bin/../lib/gcc/m68k-elf/4.2.1/../../../../m68k-elf/lib/m5208\libstdc++.a(functexcept.o)
 _ZNSt11range_errorD1Ev
                0x00000000        0x0 d:/nburn/gcc-m68k/bin/../lib/gcc/m68k-elf/4.2.1/../../../../m68k-elf/lib/m5208\libstdc++.a(functexcept.o)
 _ZNSt12out_of_rangeD0Ev
                0x00000000        0x0 d:/nburn/gcc-m68k/bin/../lib/gcc/m68k-elf/4.2.1/../../../../m68k-elf/lib/m5208\libstdc++.a(functexcept.o)
 _ZNSt12out_of_rangeD1Ev
                0x00000000        0x0 d:/nburn/gcc-m68k/bin/../lib/gcc/m68k-elf/4.2.1/../../../../m68k-elf/lib/m5208\libstdc++.a(functexcept.o)
 _ZNSt12length_errorD0Ev
                0x00000000        0x0 d:/nburn/gcc-m68k/bin/../lib/gcc/m68k-elf/4.2.1/../../../../m68k-elf/lib/m5208\libstdc++.a(functexcept.o)
 _ZNSt12length_errorD1Ev
                0x00000000        0x0 d:/nburn/gcc-m68k/bin/../lib/gcc/m68k-elf/4.2.1/../../../../m68k-elf/lib/m5208\libstdc++.a(functexcept.o)
 _ZNSt16invalid_argumentD0Ev
                0x00000000        0x0 d:/nburn/gcc-m68k/bin/../lib/gcc/m68k-elf/4.2.1/../../../../m68k-elf/lib/m5208\libstdc++.a(functexcept.o)
 _ZNSt16invalid_argumentD1Ev
                0x00000000        0x0 d:/nburn/gcc-m68k/bin/../lib/gcc/m68k-elf/4.2.1/../../../../m68k-elf/lib/m5208\libstdc++.a(functexcept.o)
 _ZNSt12domain_errorD0Ev
                0x00000000        0x0 d:/nburn/gcc-m68k/bin/../lib/gcc/m68k-elf/4.2.1/../../../../m68k-elf/lib/m5208\libstdc++.a(functexcept.o)
 _ZNSt12domain_errorD1Ev
                0x00000000        0x0 d:/nburn/gcc-m68k/bin/../lib/gcc/m68k-elf/4.2.1/../../../../m68k-elf/lib/m5208\libstdc++.a(functexcept.o)
 _ZTISt15underflow_error
                0x00000000        0x0 d:/nburn/gcc-m68k/bin/../lib/gcc/m68k-elf/4.2.1/../../../../m68k-elf/lib/m5208\libstdc++.a(functexcept.o)
 _ZTSSt15underflow_error
                0x00000000        0x0 d:/nburn/gcc-m68k/bin/../lib/gcc/m68k-elf/4.2.1/../../../../m68k-elf/lib/m5208\libstdc++.a(functexcept.o)
 _ZTVSt15underflow_error
                0x00000000        0x0 d:/nburn/gcc-m68k/bin/../lib/gcc/m68k-elf/4.2.1/../../../../m68k-elf/lib/m5208\libstdc++.a(functexcept.o)
 _ZTISt14overflow_error
                0x00000000        0x0 d:/nburn/gcc-m68k/bin/../lib/gcc/m68k-elf/4.2.1/../../../../m68k-elf/lib/m5208\libstdc++.a(functexcept.o)
 _ZTSSt14overflow_error
                0x00000000        0x0 d:/nburn/gcc-m68k/bin/../lib/gcc/m68k-elf/4.2.1/../../../../m68k-elf/lib/m5208\libstdc++.a(functexcept.o)
 _ZTVSt14overflow_error
                0x00000000        0x0 d:/nburn/gcc-m68k/bin/../lib/gcc/m68k-elf/4.2.1/../../../../m68k-elf/lib/m5208\libstdc++.a(functexcept.o)
 _ZTISt11range_error
                0x00000000        0x0 d:/nburn/gcc-m68k/bin/../lib/gcc/m68k-elf/4.2.1/../../../../m68k-elf/lib/m5208\libstdc++.a(functexcept.o)
 _ZTSSt11range_error
                0x00000000        0x0 d:/nburn/gcc-m68k/bin/../lib/gcc/m68k-elf/4.2.1/../../../../m68k-elf/lib/m5208\libstdc++.a(functexcept.o)
 _ZTVSt11range_error
                0x00000000        0x0 d:/nburn/gcc-m68k/bin/../lib/gcc/m68k-elf/4.2.1/../../../../m68k-elf/lib/m5208\libstdc++.a(functexcept.o)
 _ZTISt12out_of_range
                0x00000000        0x0 d:/nburn/gcc-m68k/bin/../lib/gcc/m68k-elf/4.2.1/../../../../m68k-elf/lib/m5208\libstdc++.a(functexcept.o)
 _ZTSSt12out_of_range
                0x00000000        0x0 d:/nburn/gcc-m68k/bin/../lib/gcc/m68k-elf/4.2.1/../../../../m68k-elf/lib/m5208\libstdc++.a(functexcept.o)
 _ZTVSt12out_of_range
                0x00000000        0x0 d:/nburn/gcc-m68k/bin/../lib/gcc/m68k-elf/4.2.1/../../../../m68k-elf/lib/m5208\libstdc++.a(functexcept.o)
 _ZTISt12length_error
                0x00000000        0x0 d:/nburn/gcc-m68k/bin/../lib/gcc/m68k-elf/4.2.1/../../../../m68k-elf/lib/m5208\libstdc++.a(functexcept.o)
 _ZTSSt12length_error
                0x00000000        0x0 d:/nburn/gcc-m68k/bin/../lib/gcc/m68k-elf/4.2.1/../../../../m68k-elf/lib/m5208\libstdc++.a(functexcept.o)
 _ZTVSt12length_error
                0x00000000        0x0 d:/nburn/gcc-m68k/bin/../lib/gcc/m68k-elf/4.2.1/../../../../m68k-elf/lib/m5208\libstdc++.a(functexcept.o)
 _ZTISt16invalid_argument
                0x00000000        0x0 d:/nburn/gcc-m68k/bin/../lib/gcc/m68k-elf/4.2.1/../../../../m68k-elf/lib/m5208\libstdc++.a(functexcept.o)
 _ZTSSt16invalid_argument
                0x00000000        0x0 d:/nburn/gcc-m68k/bin/../lib/gcc/m68k-elf/4.2.1/../../../../m68k-elf/lib/m5208\libstdc++.a(functexcept.o)
 _ZTVSt16invalid_argument
                0x00000000        0x0 d:/nburn/gcc-m68k/bin/../lib/gcc/m68k-elf/4.2.1/../../../../m68k-elf/lib/m5208\libstdc++.a(functexcept.o)
 _ZTISt12domain_error
                0x00000000        0x0 d:/nburn/gcc-m68k/bin/../lib/gcc/m68k-elf/4.2.1/../../../../m68k-elf/lib/m5208\libstdc++.a(functexcept.o)
 _ZTSSt12domain_error
                0x00000000        0x0 d:/nburn/gcc-m68k/bin/../lib/gcc/m68k-elf/4.2.1/../../../../m68k-elf/lib/m5208\libstdc++.a(functexcept.o)
 _ZTVSt12domain_error
                0x00000000        0x0 d:/nburn/gcc-m68k/bin/../lib/gcc/m68k-elf/4.2.1/../../../../m68k-elf/lib/m5208\libstdc++.a(functexcept.o)
 _ZTVNSt8ios_base7failureE
                0x00000000        0x0 d:/nburn/gcc-m68k/bin/../lib/gcc/m68k-elf/4.2.1/../../../../m68k-elf/lib/m5208\libstdc++.a(ios_failure.o)
 _ZTSNSt8ios_base7failureE
                0x00000000        0x0 d:/nburn/gcc-m68k/bin/../lib/gcc/m68k-elf/4.2.1/../../../../m68k-elf/lib/m5208\libstdc++.a(ios_failure.o)
 _ZTINSt8ios_base7failureE
                0x00000000        0x0 d:/nburn/gcc-m68k/bin/../lib/gcc/m68k-elf/4.2.1/../../../../m68k-elf/lib/m5208\libstdc++.a(ios_failure.o)
 _ZNSt11range_errorD0Ev
                0x00000000        0x0 d:/nburn/gcc-m68k/bin/../lib/gcc/m68k-elf/4.2.1/../../../../m68k-elf/lib/m5208\libstdc++.a(stdexcept.o)
 _ZNSt11range_errorD1Ev
                0x00000000        0x0 d:/nburn/gcc-m68k/bin/../lib/gcc/m68k-elf/4.2.1/../../../../m68k-elf/lib/m5208\libstdc++.a(stdexcept.o)
 _ZNSt14overflow_errorD0Ev
                0x00000000        0x0 d:/nburn/gcc-m68k/bin/../lib/gcc/m68k-elf/4.2.1/../../../../m68k-elf/lib/m5208\libstdc++.a(stdexcept.o)
 _ZNSt14overflow_errorD1Ev
                0x00000000        0x0 d:/nburn/gcc-m68k/bin/../lib/gcc/m68k-elf/4.2.1/../../../../m68k-elf/lib/m5208\libstdc++.a(stdexcept.o)
 _ZNSt15underflow_errorD0Ev
                0x00000000        0x0 d:/nburn/gcc-m68k/bin/../lib/gcc/m68k-elf/4.2.1/../../../../m68k-elf/lib/m5208\libstdc++.a(stdexcept.o)
 _ZNSt15underflow_errorD1Ev
                0x00000000        0x0 d:/nburn/gcc-m68k/bin/../lib/gcc/m68k-elf/4.2.1/../../../../m68k-elf/lib/m5208\libstdc++.a(stdexcept.o)
 _ZNSt12domain_errorD0Ev
                0x00000000        0x0 d:/nburn/gcc-m68k/bin/../lib/gcc/m68k-elf/4.2.1/../../../../m68k-elf/lib/m5208\libstdc++.a(stdexcept.o)
 _ZNSt12domain_errorD1Ev
                0x00000000        0x0 d:/nburn/gcc-m68k/bin/../lib/gcc/m68k-elf/4.2.1/../../../../m68k-elf/lib/m5208\libstdc++.a(stdexcept.o)
 _ZNSt16invalid_argumentD0Ev
                0x00000000        0x0 d:/nburn/gcc-m68k/bin/../lib/gcc/m68k-elf/4.2.1/../../../../m68k-elf/lib/m5208\libstdc++.a(stdexcept.o)
 _ZNSt16invalid_argumentD1Ev
                0x00000000        0x0 d:/nburn/gcc-m68k/bin/../lib/gcc/m68k-elf/4.2.1/../../../../m68k-elf/lib/m5208\libstdc++.a(stdexcept.o)
 _ZNSt12length_errorD0Ev
                0x00000000        0x0 d:/nburn/gcc-m68k/bin/../lib/gcc/m68k-elf/4.2.1/../../../../m68k-elf/lib/m5208\libstdc++.a(stdexcept.o)
 _ZNSt12length_errorD1Ev
                0x00000000        0x0 d:/nburn/gcc-m68k/bin/../lib/gcc/m68k-elf/4.2.1/../../../../m68k-elf/lib/m5208\libstdc++.a(stdexcept.o)
 _ZNSt12out_of_rangeD0Ev
                0x00000000        0x0 d:/nburn/gcc-m68k/bin/../lib/gcc/m68k-elf/4.2.1/../../../../m68k-elf/lib/m5208\libstdc++.a(stdexcept.o)
 _ZNSt12out_of_rangeD1Ev
                0x00000000        0x0 d:/nburn/gcc-m68k/bin/../lib/gcc/m68k-elf/4.2.1/../../../../m68k-elf/lib/m5208\libstdc++.a(stdexcept.o)
 _ZTVSt13runtime_error
                0x00000000        0x0 d:/nburn/gcc-m68k/bin/../lib/gcc/m68k-elf/4.2.1/../../../../m68k-elf/lib/m5208\libstdc++.a(stdexcept.o)
 _ZTVSt11logic_error
                0x00000000        0x0 d:/nburn/gcc-m68k/bin/../lib/gcc/m68k-elf/4.2.1/../../../../m68k-elf/lib/m5208\libstdc++.a(stdexcept.o)
 _ZTSSt13runtime_error
                0x00000000        0x0 d:/nburn/gcc-m68k/bin/../lib/gcc/m68k-elf/4.2.1/../../../../m68k-elf/lib/m5208\libstdc++.a(stdexcept.o)
 _ZTISt13runtime_error
                0x00000000        0x0 d:/nburn/gcc-m68k/bin/../lib/gcc/m68k-elf/4.2.1/../../../../m68k-elf/lib/m5208\libstdc++.a(stdexcept.o)
 _ZTSSt11logic_error
                0x00000000        0x0 d:/nburn/gcc-m68k/bin/../lib/gcc/m68k-elf/4.2.1/../../../../m68k-elf/lib/m5208\libstdc++.a(stdexcept.o)
 _ZTISt11logic_error
                0x00000000        0x0 d:/nburn/gcc-m68k/bin/../lib/gcc/m68k-elf/4.2.1/../../../../m68k-elf/lib/m5208\libstdc++.a(stdexcept.o)
 _ZTVSt15underflow_error
                0x00000000        0x0 d:/nburn/gcc-m68k/bin/../lib/gcc/m68k-elf/4.2.1/../../../../m68k-elf/lib/m5208\libstdc++.a(stdexcept.o)
 _ZTISt15underflow_error
                0x00000000        0x0 d:/nburn/gcc-m68k/bin/../lib/gcc/m68k-elf/4.2.1/../../../../m68k-elf/lib/m5208\libstdc++.a(stdexcept.o)
 _ZTSSt15underflow_error
                0x00000000        0x0 d:/nburn/gcc-m68k/bin/../lib/gcc/m68k-elf/4.2.1/../../../../m68k-elf/lib/m5208\libstdc++.a(stdexcept.o)
 _ZTVSt14overflow_error
                0x00000000        0x0 d:/nburn/gcc-m68k/bin/../lib/gcc/m68k-elf/4.2.1/../../../../m68k-elf/lib/m5208\libstdc++.a(stdexcept.o)
 _ZTISt14overflow_error
                0x00000000        0x0 d:/nburn/gcc-m68k/bin/../lib/gcc/m68k-elf/4.2.1/../../../../m68k-elf/lib/m5208\libstdc++.a(stdexcept.o)
 _ZTSSt14overflow_error
                0x00000000        0x0 d:/nburn/gcc-m68k/bin/../lib/gcc/m68k-elf/4.2.1/../../../../m68k-elf/lib/m5208\libstdc++.a(stdexcept.o)
 _ZTVSt11range_error
                0x00000000        0x0 d:/nburn/gcc-m68k/bin/../lib/gcc/m68k-elf/4.2.1/../../../../m68k-elf/lib/m5208\libstdc++.a(stdexcept.o)
 _ZTISt11range_error
                0x00000000        0x0 d:/nburn/gcc-m68k/bin/../lib/gcc/m68k-elf/4.2.1/../../../../m68k-elf/lib/m5208\libstdc++.a(stdexcept.o)
 _ZTSSt11range_error
                0x00000000        0x0 d:/nburn/gcc-m68k/bin/../lib/gcc/m68k-elf/4.2.1/../../../../m68k-elf/lib/m5208\libstdc++.a(stdexcept.o)
 _ZTVSt12out_of_range
                0x00000000        0x0 d:/nburn/gcc-m68k/bin/../lib/gcc/m68k-elf/4.2.1/../../../../m68k-elf/lib/m5208\libstdc++.a(stdexcept.o)
 _ZTISt12out_of_range
                0x00000000        0x0 d:/nburn/gcc-m68k/bin/../lib/gcc/m68k-elf/4.2.1/../../../../m68k-elf/lib/m5208\libstdc++.a(stdexcept.o)
 _ZTSSt12out_of_range
                0x00000000        0x0 d:/nburn/gcc-m68k/bin/../lib/gcc/m68k-elf/4.2.1/../../../../m68k-elf/lib/m5208\libstdc++.a(stdexcept.o)
 _ZTVSt12length_error
                0x00000000        0x0 d:/nburn/gcc-m68k/bin/../lib/gcc/m68k-elf/4.2.1/../../../../m68k-elf/lib/m5208\libstdc++.a(stdexcept.o)
 _ZTISt12length_error
                0x00000000        0x0 d:/nburn/gcc-m68k/bin/../lib/gcc/m68k-elf/4.2.1/../../../../m68k-elf/lib/m5208\libstdc++.a(stdexcept.o)
 _ZTSSt12length_error
                0x00000000        0x0 d:/nburn/gcc-m68k/bin/../lib/gcc/m68k-elf/4.2.1/../../../../m68k-elf/lib/m5208\libstdc++.a(stdexcept.o)
 _ZTVSt16invalid_argument
                0x00000000        0x0 d:/nburn/gcc-m68k/bin/../lib/gcc/m68k-elf/4.2.1/../../../../m68k-elf/lib/m5208\libstdc++.a(stdexcept.o)
 _ZTISt16invalid_argument
                0x00000000        0x0 d:/nburn/gcc-m68k/bin/../lib/gcc/m68k-elf/4.2.1/../../../../m68k-elf/lib/m5208\libstdc++.a(stdexcept.o)
 _ZTSSt16invalid_argument
                0x00000000        0x0 d:/nburn/gcc-m68k/bin/../lib/gcc/m68k-elf/4.2.1/../../../../m68k-elf/lib/m5208\libstdc++.a(stdexcept.o)
 _ZTVSt12domain_error
                0x00000000        0x0 d:/nburn/gcc-m68k/bin/../lib/gcc/m68k-elf/4.2.1/../../../../m68k-elf/lib/m5208\libstdc++.a(stdexcept.o)
 _ZTISt12domain_error
                0x00000000        0x0 d:/nburn/gcc-m68k/bin/../lib/gcc/m68k-elf/4.2.1/../../../../m68k-elf/lib/m5208\libstdc++.a(stdexcept.o)
 _ZTSSt12domain_error
                0x00000000        0x0 d:/nburn/gcc-m68k/bin/../lib/gcc/m68k-elf/4.2.1/../../../../m68k-elf/lib/m5208\libstdc++.a(stdexcept.o)
 .text._ZNSt11range_errorD0Ev
                0x00000000        0x0 d:/nburn/gcc-m68k/bin/../lib/gcc/m68k-elf/4.2.1/../../../../m68k-elf/lib/m5208\libstdc++.a(stdexcept.o)
 .text._ZNSt11range_errorD1Ev
                0x00000000        0x0 d:/nburn/gcc-m68k/bin/../lib/gcc/m68k-elf/4.2.1/../../../../m68k-elf/lib/m5208\libstdc++.a(stdexcept.o)
 .text._ZNSt14overflow_errorD0Ev
                0x00000000        0x0 d:/nburn/gcc-m68k/bin/../lib/gcc/m68k-elf/4.2.1/../../../../m68k-elf/lib/m5208\libstdc++.a(stdexcept.o)
 .text._ZNSt14overflow_errorD1Ev
                0x00000000        0x0 d:/nburn/gcc-m68k/bin/../lib/gcc/m68k-elf/4.2.1/../../../../m68k-elf/lib/m5208\libstdc++.a(stdexcept.o)
 .text._ZNSt15underflow_errorD0Ev
                0x00000000        0x0 d:/nburn/gcc-m68k/bin/../lib/gcc/m68k-elf/4.2.1/../../../../m68k-elf/lib/m5208\libstdc++.a(stdexcept.o)
 .text._ZNSt15underflow_errorD1Ev
                0x00000000        0x0 d:/nburn/gcc-m68k/bin/../lib/gcc/m68k-elf/4.2.1/../../../../m68k-elf/lib/m5208\libstdc++.a(stdexcept.o)
 .text._ZNSt12domain_errorD0Ev
                0x00000000        0x0 d:/nburn/gcc-m68k/bin/../lib/gcc/m68k-elf/4.2.1/../../../../m68k-elf/lib/m5208\libstdc++.a(stdexcept.o)
 .text._ZNSt12domain_errorD1Ev
                0x00000000        0x0 d:/nburn/gcc-m68k/bin/../lib/gcc/m68k-elf/4.2.1/../../../../m68k-elf/lib/m5208\libstdc++.a(stdexcept.o)
 .text._ZNSt16invalid_argumentD0Ev
                0x00000000        0x0 d:/nburn/gcc-m68k/bin/../lib/gcc/m68k-elf/4.2.1/../../../../m68k-elf/lib/m5208\libstdc++.a(stdexcept.o)
 .text._ZNSt16invalid_argumentD1Ev
                0x00000000        0x0 d:/nburn/gcc-m68k/bin/../lib/gcc/m68k-elf/4.2.1/../../../../m68k-elf/lib/m5208\libstdc++.a(stdexcept.o)
 .text._ZNSt12length_errorD0Ev
                0x00000000        0x0 d:/nburn/gcc-m68k/bin/../lib/gcc/m68k-elf/4.2.1/../../../../m68k-elf/lib/m5208\libstdc++.a(stdexcept.o)
 .text._ZNSt12length_errorD1Ev
                0x00000000        0x0 d:/nburn/gcc-m68k/bin/../lib/gcc/m68k-elf/4.2.1/../../../../m68k-elf/lib/m5208\libstdc++.a(stdexcept.o)
 .text._ZNSt12out_of_rangeD0Ev
                0x00000000        0x0 d:/nburn/gcc-m68k/bin/../lib/gcc/m68k-elf/4.2.1/../../../../m68k-elf/lib/m5208\libstdc++.a(stdexcept.o)
 .text._ZNSt12out_of_rangeD1Ev
                0x00000000        0x0 d:/nburn/gcc-m68k/bin/../lib/gcc/m68k-elf/4.2.1/../../../../m68k-elf/lib/m5208\libstdc++.a(stdexcept.o)
 .rodata._ZTVSt15underflow_error
                0x00000000        0x0 d:/nburn/gcc-m68k/bin/../lib/gcc/m68k-elf/4.2.1/../../../../m68k-elf/lib/m5208\libstdc++.a(stdexcept.o)
 .rodata._ZTISt15underflow_error
                0x00000000        0x0 d:/nburn/gcc-m68k/bin/../lib/gcc/m68k-elf/4.2.1/../../../../m68k-elf/lib/m5208\libstdc++.a(stdexcept.o)
 .rodata._ZTSSt15underflow_error
                0x00000000        0x0 d:/nburn/gcc-m68k/bin/../lib/gcc/m68k-elf/4.2.1/../../../../m68k-elf/lib/m5208\libstdc++.a(stdexcept.o)
 .rodata._ZTVSt14overflow_error
                0x00000000        0x0 d:/nburn/gcc-m68k/bin/../lib/gcc/m68k-elf/4.2.1/../../../../m68k-elf/lib/m5208\libstdc++.a(stdexcept.o)
 .rodata._ZTISt14overflow_error
                0x00000000        0x0 d:/nburn/gcc-m68k/bin/../lib/gcc/m68k-elf/4.2.1/../../../../m68k-elf/lib/m5208\libstdc++.a(stdexcept.o)
 .rodata._ZTSSt14overflow_error
                0x00000000        0x0 d:/nburn/gcc-m68k/bin/../lib/gcc/m68k-elf/4.2.1/../../../../m68k-elf/lib/m5208\libstdc++.a(stdexcept.o)
 .rodata._ZTVSt11range_error
                0x00000000        0x0 d:/nburn/gcc-m68k/bin/../lib/gcc/m68k-elf/4.2.1/../../../../m68k-elf/lib/m5208\libstdc++.a(stdexcept.o)
 .rodata._ZTISt11range_error
                0x00000000        0x0 d:/nburn/gcc-m68k/bin/../lib/gcc/m68k-elf/4.2.1/../../../../m68k-elf/lib/m5208\libstdc++.a(stdexcept.o)
 .rodata._ZTSSt11range_error
                0x00000000        0x0 d:/nburn/gcc-m68k/bin/../lib/gcc/m68k-elf/4.2.1/../../../../m68k-elf/lib/m5208\libstdc++.a(stdexcept.o)
 .rodata._ZTVSt12out_of_range
                0x00000000        0x0 d:/nburn/gcc-m68k/bin/../lib/gcc/m68k-elf/4.2.1/../../../../m68k-elf/lib/m5208\libstdc++.a(stdexcept.o)
 .rodata._ZTISt12out_of_range
                0x00000000        0x0 d:/nburn/gcc-m68k/bin/../lib/gcc/m68k-elf/4.2.1/../../../../m68k-elf/lib/m5208\libstdc++.a(stdexcept.o)
 .rodata._ZTSSt12out_of_range
                0x00000000        0x0 d:/nburn/gcc-m68k/bin/../lib/gcc/m68k-elf/4.2.1/../../../../m68k-elf/lib/m5208\libstdc++.a(stdexcept.o)
 .rodata._ZTVSt12length_error
                0x00000000        0x0 d:/nburn/gcc-m68k/bin/../lib/gcc/m68k-elf/4.2.1/../../../../m68k-elf/lib/m5208\libstdc++.a(stdexcept.o)
 .rodata._ZTISt12length_error
                0x00000000        0x0 d:/nburn/gcc-m68k/bin/../lib/gcc/m68k-elf/4.2.1/../../../../m68k-elf/lib/m5208\libstdc++.a(stdexcept.o)
 .rodata._ZTSSt12length_error
                0x00000000        0x0 d:/nburn/gcc-m68k/bin/../lib/gcc/m68k-elf/4.2.1/../../../../m68k-elf/lib/m5208\libstdc++.a(stdexcept.o)
 .rodata._ZTVSt16invalid_argument
                0x00000000        0x0 d:/nburn/gcc-m68k/bin/../lib/gcc/m68k-elf/4.2.1/../../../../m68k-elf/lib/m5208\libstdc++.a(stdexcept.o)
 .rodata._ZTISt16invalid_argument
                0x00000000        0x0 d:/nburn/gcc-m68k/bin/../lib/gcc/m68k-elf/4.2.1/../../../../m68k-elf/lib/m5208\libstdc++.a(stdexcept.o)
 .rodata._ZTSSt16invalid_argument
                0x00000000        0x0 d:/nburn/gcc-m68k/bin/../lib/gcc/m68k-elf/4.2.1/../../../../m68k-elf/lib/m5208\libstdc++.a(stdexcept.o)
 .rodata._ZTVSt12domain_error
                0x00000000        0x0 d:/nburn/gcc-m68k/bin/../lib/gcc/m68k-elf/4.2.1/../../../../m68k-elf/lib/m5208\libstdc++.a(stdexcept.o)
 .rodata._ZTISt12domain_error
                0x00000000        0x0 d:/nburn/gcc-m68k/bin/../lib/gcc/m68k-elf/4.2.1/../../../../m68k-elf/lib/m5208\libstdc++.a(stdexcept.o)
 .rodata._ZTSSt12domain_error
                0x00000000        0x0 d:/nburn/gcc-m68k/bin/../lib/gcc/m68k-elf/4.2.1/../../../../m68k-elf/lib/m5208\libstdc++.a(stdexcept.o)
 _ZTVSt9bad_alloc
                0x00000000        0x0 d:/nburn/gcc-m68k/bin/../lib/gcc/m68k-elf/4.2.1/../../../../m68k-elf/lib/m5208\libstdc++.a(new_handler.o)
 _ZTSSt9bad_alloc
                0x00000000        0x0 d:/nburn/gcc-m68k/bin/../lib/gcc/m68k-elf/4.2.1/../../../../m68k-elf/lib/m5208\libstdc++.a(new_handler.o)
 _ZTISt9bad_alloc
                0x00000000        0x0 d:/nburn/gcc-m68k/bin/../lib/gcc/m68k-elf/4.2.1/../../../../m68k-elf/lib/m5208\libstdc++.a(new_handler.o)
 _ZTVSt13bad_exception
                0x00000000        0x0 d:/nburn/gcc-m68k/bin/../lib/gcc/m68k-elf/4.2.1/../../../../m68k-elf/lib/m5208\libstdc++.a(eh_exception.o)
 _ZTVSt9exception
                0x00000000        0x0 d:/nburn/gcc-m68k/bin/../lib/gcc/m68k-elf/4.2.1/../../../../m68k-elf/lib/m5208\libstdc++.a(eh_exception.o)
 _ZTSSt13bad_exception
                0x00000000        0x0 d:/nburn/gcc-m68k/bin/../lib/gcc/m68k-elf/4.2.1/../../../../m68k-elf/lib/m5208\libstdc++.a(eh_exception.o)
 _ZTISt13bad_exception
                0x00000000        0x0 d:/nburn/gcc-m68k/bin/../lib/gcc/m68k-elf/4.2.1/../../../../m68k-elf/lib/m5208\libstdc++.a(eh_exception.o)
 _ZTSSt9exception
                0x00000000        0x0 d:/nburn/gcc-m68k/bin/../lib/gcc/m68k-elf/4.2.1/../../../../m68k-elf/lib/m5208\libstdc++.a(eh_exception.o)
 _ZTISt9exception
                0x00000000        0x0 d:/nburn/gcc-m68k/bin/../lib/gcc/m68k-elf/4.2.1/../../../../m68k-elf/lib/m5208\libstdc++.a(eh_exception.o)
 _ZTVSt10bad_typeid
                0x00000000        0x0 d:/nburn/gcc-m68k/bin/../lib/gcc/m68k-elf/4.2.1/../../../../m68k-elf/lib/m5208\libstdc++.a(bad_typeid.o)
 _ZTSSt10bad_typeid
                0x00000000        0x0 d:/nburn/gcc-m68k/bin/../lib/gcc/m68k-elf/4.2.1/../../../../m68k-elf/lib/m5208\libstdc++.a(bad_typeid.o)
 _ZTISt10bad_typeid
                0x00000000        0x0 d:/nburn/gcc-m68k/bin/../lib/gcc/m68k-elf/4.2.1/../../../../m68k-elf/lib/m5208\libstdc++.a(bad_typeid.o)
 _ZTVN10__cxxabiv117__class_type_infoE
                0x00000000        0x0 d:/nburn/gcc-m68k/bin/../lib/gcc/m68k-elf/4.2.1/../../../../m68k-elf/lib/m5208\libstdc++.a(class_type_info.o)
 _ZTSN10__cxxabiv117__class_type_infoE
                0x00000000        0x0 d:/nburn/gcc-m68k/bin/../lib/gcc/m68k-elf/4.2.1/../../../../m68k-elf/lib/m5208\libstdc++.a(class_type_info.o)
 _ZTIN10__cxxabiv117__class_type_infoE
                0x00000000        0x0 d:/nburn/gcc-m68k/bin/../lib/gcc/m68k-elf/4.2.1/../../../../m68k-elf/lib/m5208\libstdc++.a(class_type_info.o)
 _ZTVSt8bad_cast
                0x00000000        0x0 d:/nburn/gcc-m68k/bin/../lib/gcc/m68k-elf/4.2.1/../../../../m68k-elf/lib/m5208\libstdc++.a(bad_cast.o)
 _ZTSSt8bad_cast
                0x00000000        0x0 d:/nburn/gcc-m68k/bin/../lib/gcc/m68k-elf/4.2.1/../../../../m68k-elf/lib/m5208\libstdc++.a(bad_cast.o)
 _ZTISt8bad_cast
                0x00000000        0x0 d:/nburn/gcc-m68k/bin/../lib/gcc/m68k-elf/4.2.1/../../../../m68k-elf/lib/m5208\libstdc++.a(bad_cast.o)
 _ZTVN10__cxxabiv120__si_class_type_infoE
                0x00000000        0x0 d:/nburn/gcc-m68k/bin/../lib/gcc/m68k-elf/4.2.1/../../../../m68k-elf/lib/m5208\libstdc++.a(si_class_type_info.o)
 _ZTSN10__cxxabiv120__si_class_type_infoE
                0x00000000        0x0 d:/nburn/gcc-m68k/bin/../lib/gcc/m68k-elf/4.2.1/../../../../m68k-elf/lib/m5208\libstdc++.a(si_class_type_info.o)
 _ZTIN10__cxxabiv120__si_class_type_infoE
                0x00000000        0x0 d:/nburn/gcc-m68k/bin/../lib/gcc/m68k-elf/4.2.1/../../../../m68k-elf/lib/m5208\libstdc++.a(si_class_type_info.o)
 _ZTVSt9type_info
                0x00000000        0x0 d:/nburn/gcc-m68k/bin/../lib/gcc/m68k-elf/4.2.1/../../../../m68k-elf/lib/m5208\libstdc++.a(tinfo.o)
 _ZTSSt9type_info
                0x00000000        0x0 d:/nburn/gcc-m68k/bin/../lib/gcc/m68k-elf/4.2.1/../../../../m68k-elf/lib/m5208\libstdc++.a(tinfo.o)
 _ZTISt9type_info
                0x00000000        0x0 d:/nburn/gcc-m68k/bin/../lib/gcc/m68k-elf/4.2.1/../../../../m68k-elf/lib/m5208\libstdc++.a(tinfo.o)

Memory Configuration

Name             Origin             Length             Attributes
ram              0x02000000         0x00200000         xrw
SRAM             0x20000400         0x0000fc00         xrw
*default*        0x00000000         0xffffffff

Linker script and memory map

LOAD d:/nburn/gcc-m68k/bin/../lib/gcc/m68k-elf/4.2.1/../../../../m68k-elf/lib/m5208\nb-crt0.o
LOAD d:/nburn/gcc-m68k/bin/../lib/gcc/m68k-elf/4.2.1/m5208/crtbegin.o
LOAD main.o
LOAD D:\nburn\MOD5270\lib\sys.ld
                0x20000000                vector_base = 0x20000000
                0x20010000                SRAM_END_ADDR = 0x20010000
                0x40000000                sim = 0x40000000
                0xffc04000                gConfigRec = 0xffc04000
                0xffc06000                UserParamBase = 0xffc06000
                0xffc00008                _RESET_ADDR = 0xffc00008
                0xffc08000                FlashAppBase = 0xffc08000
START GROUP
LOAD D:\nburn\lib\MOD5270.a
LOAD D:\nburn\lib\NetBurner.a
LOAD D:\nburn\lib\FatFile.a
LOAD D:\nburn\lib\rtl8711Library.a
END GROUP
LOAD d:/nburn/gcc-m68k/bin/../lib/gcc/m68k-elf/4.2.1/../../../../m68k-elf/lib/m5208\libstdc++.a
LOAD d:/nburn/gcc-m68k/bin/../lib/gcc/m68k-elf/4.2.1/../../../../m68k-elf/lib/m5208\libm.a
LOAD d:/nburn/gcc-m68k/bin/../lib/gcc/m68k-elf/4.2.1/m5208\libgcc.a
LOAD d:/nburn/gcc-m68k/bin/../lib/gcc/m68k-elf/4.2.1/../../../../m68k-elf/lib/m5208\libc.a
LOAD d:/nburn/gcc-m68k/bin/../lib/gcc/m68k-elf/4.2.1/m5208\libgcc.a
LOAD d:/nburn/gcc-m68k/bin/../lib/gcc/m68k-elf/4.2.1/m5208/crtend.o
START GROUP
LOAD d:/nburn/gcc-m68k/bin/../lib/gcc/m68k-elf/4.2.1/../../../../m68k-elf/lib/m5208\libc.a
LOAD d:/nburn/gcc-m68k/bin/../lib/gcc/m68k-elf/4.2.1/m5208\libgcc.a
LOAD d:/nburn/gcc-m68k/bin/../lib/gcc/m68k-elf/4.2.1/../../../../m68k-elf/lib/m5208\libm.a
END GROUP
                0x00000000                __DYNAMIC = 0x0
                0x02200000                PROVIDE (__stack, 0x2200000)
                0x00000000                PROVIDE (hardware_init_hook, 0x0)
                0x00000000                PROVIDE (_hardware_init_hook, 0x0)
                0x00000000                PROVIDE (software_init_hook, 0x0)
                0x00000000                PROVIDE (_software_init_hook, 0x0)

.SRAM_SECT      0x20000400     0x8640
                0x20000400                SRAM_START = .
 *(SYS_VAR_SECT)
 SYS_VAR_SECT   0x20000400      0x238 D:\nburn\lib\NetBurner.a(ucos.o)
                0x2000052c                TimeTick
                0x2000051c                OSLockNesting
                0x20000526                OSRunning
                0x20000508                OSTCBList
                0x20000530                OSMapTbl
                0x20000528                Secs
                0x20000514                OSTCBFreeList
                0x20000527                OSShowTasksOnLeds
                0x20000524                OSISRLevel
                0x20000510                OSTCBHighRdy
                0x20000520                OSRdyGrp
                0x20000538                OSUnMapTbl
                0x20000500                OSRdyTbl
                0x20000518                OSIntNesting
                0x2000050c                OSTCBCur
                0x20000400                OSTCBPrioTbl
 SYS_VAR_SECT   0x20000638      0x1a8 D:\nburn\lib\NetBurner.a(ucosmain.o)
                0x2000064c                critical_count
                0x20000650                OSTCBTbl
 SYS_VAR_SECT   0x200007e0       0x1c D:\nburn\lib\NetBurner.a(fileio.o)
                0x200007f8                pExtraFdFunc
 SYS_VAR_SECT   0x200007fc       0x20 D:\nburn\lib\NetBurner.a(iosys.o)
                0x200007fc                read_file_sets
                0x2000080c                error_file_sets
                0x20000804                write_file_sets
                0x2000081c                SYS_VAR_SECT_END = .
                0x20000820                . = ALIGN (0x10)
 *fill*         0x2000081c        0x4 00
 *(IDLE_STK_SECT)
                0x20000820                IDLE_STK_SECT_END = .
                0x20000820                . = ALIGN (0x10)
 *(MAIN_STK_SECT)
 MAIN_STK_SECT  0x20000820     0x2000 D:\nburn\lib\NetBurner.a(main.o)
                0x20000820                MainStk
                0x20002820                MAIN_STK_SECT_END = .
                0x20002820                . = ALIGN (0x4)
 *(ETHER_VAR_SECT)
 ETHER_VAR_SECT
                0x20002820      0x128 D:\nburn\lib\MOD5270.a(ethernet.o)
                0x200028f6                TxcPosts
                0x200028fa                TxcSems
                0x20002820                EthernetMac
                0x200028ee                LastIsrStatus
                0x20002912                MIILockOut
                0x20002850                RxBD
                0x200028e0                TxBDFlag
                0x200028fe                RxIsr
                0x2000291a                PHY_addr
                0x200028f2                RxPosts
                0x20002916                phy_data
                0x20002920                PHY_ID
                0x2000291c                PHY_OUI_ID
                0x2000290a                bEthLink
                0x2000290e                bEverHadLink
                0x200028d4                RxBDFlag
                0x200028ea                last_rxbd
                0x20002906                bEthAutoNeg
                0x200028a0                RxBDpp
                0x20002924                last_phy_read
                0x20002826                nTx
                0x20002902                TxIsr
                0x200028c8                TxBDpp
                0x20002830                TxBD
                0x20002948                ETHER_VAR_SECT_END = .
                0x20002950                . = ALIGN (0x10)
 *fill*         0x20002948        0x8 00
 *(ETHER_STK_SECT)
 ETHER_STK_SECT
                0x20002950     0x2000 D:\nburn\lib\MOD5270.a(ethernet.o)
                0x20002950                EtherSendStk
                0x20004950                ETHER_STK_SECT_END = .
                0x20004950                . = ALIGN (0x4)
 *(IP_VAR_SECT)
 IP_VAR_SECT    0x20004950       0x36 D:\nburn\lib\NetBurner.a(ip.o)
                0x20004952                bTTL_Default
                0x2000497e                next_arp_time
                0x20004954                ipRxFifo
                0x20004966                IcmpFifo
                0x20004950                wGlobalPktId
                0x20004972                pPromisciousPacketFunc
                0x2000497a                pFragFunc
                0x20004976                pMultiCastFunc
                0x20004982                delay
                0x2000496e                pMultiTick
                0x2000496a                pDHCPTick
 IP_VAR_SECT    0x20004986       0x74 D:\nburn\lib\NetBurner.a(udp.o)
                0x200049f6                UdpNetbiosNameServicePtr
                0x20004986                udp_fifos
                0x200049ee                pDHCPProcessFunction
                0x200049f2                pTaskPacketFunc
                0x200049ea                UDP_fifos_used
                0x200049fa                IP_VAR_SECT_END = .
                0x20004a00                . = ALIGN (0x10)
 *fill*         0x200049fa        0x6 00
 *(IP_STK_SECT)
 IP_STK_SECT    0x20004a00     0x2000 D:\nburn\lib\NetBurner.a(ip.o)
                0x20004a00                IPStk
                0x20006a00                IP_STK_SECT_END = .
                0x20006a00                . = ALIGN (0x4)
 *(TCP_VAR_SECT)
 TCP_VAR_SECT   0x20006a00       0x1e D:\nburn\lib\NetBurner.a(tcp.o)
                0x20006a10                TCP_TimerSemaphore
                0x20006a00                TCP_critical_section
                0x20006a1e                TCP_VAR_SECT_END = .
                0x20006a20                . = ALIGN (0x10)
 *fill*         0x20006a1e        0x2 00
 *(TCP_STK_SECT)
 TCP_STK_SECT   0x20006a20     0x2000 D:\nburn\lib\NetBurner.a(tcp.o)
                0x20006a20                TCPStk
                0x20008a20                TCP_STK_SECT_END = .
                0x20008a20                . = ALIGN (0x10)
 *(HTTP_STK_SECT)
                0x20008a20                HTTP_STK_SECT_END = .
                0x20008a20                . = ALIGN (0x10)
 *(FTP_STK_SECT)
                0x20008a20                FTP_STK_SECT_END = .
                0x20008a20                . = ALIGN (0x10)
 *(WIFI_STK_SECT)
                0x20008a20                WIFI_STK_SECT_END = .
                0x20008a20                . = ALIGN (0x10)
 *(PPP_STK_SECT)
                0x20008a20                PPP_STK_SECT_END = .
                0x20008a20                . = ALIGN (0x10)
 *(COMMAND_STK_SECT)
                0x20008a20                COMMAND_STK_SECT_END = .
                0x20008a20                . = ALIGN (0x4)
 *(USER_VAR_SECT)
                0x20008a20                USER_VAR_SECT_END = .
                0x20008a20                . = ALIGN (0x10)
 *(USER_STK_SECT)
                0x20008a20                USER_STK_SECT_END = .
                0x20008a20                BUFFERS_SECT_START = .
                0x20008a20                . = ALIGN (0x10)
 *(BUFFERS_VAR_SECT)
 BUFFERS_VAR_SECT
                0x20008a20       0x1c D:\nburn\lib\NetBurner.a(buffers.o)
                0x20008a20                FAST_BUFFER_POOL_SIZE
                0x20008a2e                free_fast_list
                0x20008a38                free_list_is_initialized
                0x20008a24                free_list
                0x20008a40                . = ALIGN (0x10)
 *fill*         0x20008a3c        0x4 00
                0x20008a40                BUFFERS_VAR_SECT_END = .
                0x20008a40                . = ALIGN (0x10)
                0x20008a40                SRAM_END = .

.text           0x02000000    0x3d4b0
 *(.text)
 .text          0x02000000       0xaa d:/nburn/gcc-m68k/bin/../lib/gcc/m68k-elf/4.2.1/../../../../m68k-elf/lib/m5208\nb-crt0.o
                0x02000000                start
 *fill*         0x020000aa        0x2 00
 .text          0x020000ac       0x9c d:/nburn/gcc-m68k/bin/../lib/gcc/m68k-elf/4.2.1/m5208/crtbegin.o
 .text          0x02000148     0x124c main.o
                0x0200060c                ShowAppRevision
                0x020006d4                ShowLocalIPAddr
                0x0200090c                doPulses
                0x0200014c                func_isr
                0x020009cc                disableAll
                0x020007c4                displayCLIMenu
                0x02000380                pollNTPServer
                0x02000694                ShowRemoteIPAddr
                0x02000408                ShowImpulseComponentEvents
                0x02000654                IPtoString(unsigned long, char*)
                0x02000b04                UserMain
                0x02000a00                real_func_isr
                0x02000320                displayConfig
                0x020002c0                setDefaults
                0x0200026c                PrintTimeStruct
                0x02000148                fake_func_isr()
                0x02000714                htmlDisplayUTCClock
                0x02000898                initDMATIMER1
                0x0200078c                writeTimeStampUTC
 .text          0x02001394      0x5d0 D:\nburn\lib\MOD5270.a(bsp.o)
                0x020016d8                _sbrk_r
                0x02001840                HardwareSetup
                0x0200166c                DisableCache
                0x020017d8                spaceleft
                0x02001730                LocalInByte
                0x02001824                ForceReboot
                0x020015b0                FlashProgram
                0x02001810                BspGetTickFraction
                0x02001394                xTick
                0x02001530                FlashErase
                0x02001764                LocalOutByte
                0x02001724                atexit
                0x02001488                GetPreciseTime
                0x02001680                EnableCache
                0x020013b0                SetIntc
                0x020017b4                LocalCharAvail
                0x02001398                Tick5270
 .text          0x02001964     0x1ca2 D:\nburn\lib\MOD5270.a(pins.o)
                0x02001964                PinIO::set(unsigned char)
                0x0200301c                PinIO::function(int)
                0x0200251c                PinIO::drive()
                0x020035a4                CReadPin
                0x02002964                PinIO::read()
                0x020035c8                CGPInPin
 *fill*         0x02003606        0xa 00
 .text          0x02003610      0x44a D:\nburn\lib\NetBurner.a(ucosmcfa.o)
                0x020036f0                OSDebugTraceHalt
                0x02003610                OSStartHighRdy
                0x02003700                TrapOutByte
                0x02003730                memcpy
                0x02003730                fmemcpy
                0x02003630                OSCtxSw
                0x02003720                TrapCharAvail
                0x02003660                OSIntCtxSw
                0x02003710                TrapInByte
                0x02003690                OSTickISR
                0x02003800                memcpysum
                0x020036d0                OSSetupVBR
                0x02003a30                GetSR_IntLevel
                0x02003990                memset
                0x02003990                fmemset
                0x02003a40                SetSR_IntLevel
 *fill*         0x02003a5a        0x2 00
 .text          0x02003a5c      0x320 D:\nburn\lib\NetBurner.a(ucosmcfc.o)
                0x02003d44                OSTaskCreate
                0x02003d70                TopOfStackKillfunction
                0x02003b18                OSTaskCreatewName
                0x02003a5c                OSTCBInit
                0x02003d74                KillFunctionLink
 .text          0x02003d7c     0x1e14 D:\nburn\lib\NetBurner.a(ucos.o)
                0x02004210                OSCritEnterNoWait
                0x020043e6                UCOSWAITS_HERE
                0x020046d8                OSFifoPostFirst
                0x02004420                OSCritLeave
                0x020041bc                getpid
                0x02003ee0                OSLock
                0x02004b2c                OSQPostFirst
                0x02004284                OSTaskID
                0x020040a4                OSQPendNoWait
                0x0200429c                OSSetName
                0x020042c4                OSIntExit
                0x02003f68                OSSemPendNoWait
                0x02005674                OSTaskDelete
                0x02005890                OSUnlock
                0x020041d4                OSCritInit
                0x02004ccc                OSQPost
                0x02004538                OSCritEnter
                0x02004998                OSFifoPend
                0x020054d4                OSSemPend
                0x02003fa8                OSMboxInit
                0x0200504c                OSMboxPost
                0x02004120                OSFifoInit
                0x02004e64                OSQPend
                0x02004360                OSSched
                0x020058d0                OSTimeDly
                0x02005348                OSSemPost
                0x0200578c                OSChangePrio
                0x02003eb0                OSTCBGetFree
                0x02003d7c                OSIntEnterWAS
                0x02003ff0                OSMboxPendNoWait
                0x02004838                OSFifoPost
                0x02003f08                OSSemInit
                0x02005998                OSStart
                0x02003dc4                OSTimeTick
                0x02004030                OSQInit
                0x020042b0                OSTaskName
                0x0200416c                OSFifoPendNoWait
                0x020051b4                OSMboxPend
                0x02005a14                OSInit
                0x02003da4                OSChangeTaskDly
 .text          0x02005b90      0x16c D:\nburn\lib\NetBurner.a(ucosmain.o)
                0x02005c6c                __malloc_unlock
                0x02005b90                UCosBegin
                0x02005c8c                balloc_lock
                0x02005ccc                UCosSetup
                0x02005c50                balloc_unlock
                0x02005cac                __malloc_lock
 .text          0x02005cfc      0x5f8 D:\nburn\lib\NetBurner.a(fileio.o)
                0x02005e8c                ioctl
                0x02005cfc                isatty
                0x02005de4                CurrentStdioFD
                0x02005e5c                lseek
                0x02005d34                ReplaceStdio
                0x02005ef8                write
                0x02005d18                fstat
                0x02006028                rawwrite
                0x02006234                stdioinbyte
                0x020060ac                read
                0x02005e14                outbyte
                0x02005e74                open
                0x02005e2c                charavail
                0x02005e08                fcntl
                0x020062ac                close
 .text          0x020062f4      0x43c D:\nburn\lib\NetBurner.a(tzsetchar.o)
                0x020062f4                tzsetchar
 .text          0x02006730       0xb6 D:\nburn\lib\NetBurner.a(main.o)
                0x02006768                main
                0x02006730                __do_global_ctors
 *fill*         0x020067e6        0x2 00
 .text          0x020067e8      0xbe0 D:\nburn\lib\NetBurner.a(utils.o)
                0x020071d4                fShowMac
                0x020069d8                FancyDump(unsigned char*, int)
                0x02007264                ShowCounters
                0x02006920                convertHexAsciiToBinary
                0x02006b98                ShowData
                0x020067e8                kill
                0x020072cc                fShowCounters
                0x02007194                fShowIP
                0x020067f8                _fini
                0x02006b04                ShowIP
                0x02006804                AsciiToIp
                0x02007344                sShowCounters
                0x02007230                DiagMenuPicker(int, unsigned char)
                0x02006b40                ShowMac
                0x02006888                convertBinaryToHexAscii
                0x020069c0                __builtin_delete
                0x020067f0                _exit
 .text          0x020073c8     0x187a D:\nburn\lib\NetBurner.a(ip.o)
                0x02007818                FixUpICMP(IPPKT*, unsigned char, unsigned char, unsigned char*, unsigned short)
                0x02007588                IsMultiCast(unsigned long)
                0x020080c0                FixHeaderAndSend(pool_buffer*, IPPKT*)
                0x02007ac0                DoIPPacket(pool_buffer*, EFRAME*, unsigned short)
                0x02007484                GetSum20
                0x020083bc                PingViaInterface
                0x02007a60                SaveError(pool_buffer*)
                0x02007dd8                process_icmp(pool_buffer*, IPPKT*, unsigned short)
                0x020076c4                IpProcessEthernetPacket
                0x02007c8c                FixHeaderAndSendViaInterface(pool_buffer*, IPPKT*, int)
                0x02008500                ShowIPBuffer(pool_buffer*)
                0x02008220                SendICMPError(pool_buffer*, unsigned char, unsigned char)
                0x02007930                InitializeStack(unsigned long, unsigned long, unsigned long, unsigned long)
                0x020075d8                GetData(IPPKT*)
                0x02007a54                InitializeCStack
                0x020084cc                Ping
                0x020073c8                GetSum
                0x02007aa4                IsMyIp
                0x020078d4                IsBroadCast(unsigned long, int)
                0x02007880                KillStack
                0x02007604                PrepareIPOutput(pool_buffer*, unsigned long, unsigned short)
                0x020075a8                GetMultiAddress(unsigned long)
                0x020082f4                SendPing
                0x020074bc                GetSumHdr
                0x0200788c                IsLocal(unsigned long, int)
                0x02007ef4                IPTask(void*)
 *fill*         0x02008c42        0x2 00
 .text          0x02008c44      0xec8 D:\nburn\lib\NetBurner.a(buffers.o)
                0x02009104                fifo_buffer_storage::Full()
                0x020091f4                ShowBuffer
                0x020094d8                fifo_buffer_storage::Reset(unsigned char)
                0x02008d28                InitBuffers
                0x02008e54                buffer_list::InsertBefore(pool_buffer*, pool_buffer*)
                0x0200902c                GetBuffer
                0x020091d4                fifo_buffer_storage::fifo_buffer_storage(unsigned char, unsigned char)
                0x020090ec                fifo_buffer_storage::Empty()
                0x02009950                fifo_buffer_storage::ReadDatawSum(unsigned char*, int, unsigned long&)
                0x020090d8                fifo_buffer_storage::SpaceUsed()
                0x02008c44                ShowBuffers()
                0x02008c70                buffer_list::InsertHead(pool_buffer*)
                0x02009320                GetFreeCount
                0x02008c54                IncUsageCount
                0x020091b4                fifo_buffer_storage::fifo_buffer_storage(unsigned char, unsigned char)
                0x02008df0                buffer_list::InsertTail(pool_buffer*)
                0x02009598                fifo_buffer_storage::~fifo_buffer_storage()
                0x02009688                fifo_buffer_storage::SetMaxBuffers(unsigned char)
                0x02009398                fifo_buffer_storage::ReadData(unsigned char*, int)
                0x0200914c                fifo_buffer_storage::Init(unsigned char, unsigned char)
                0x02008c4c                DumpBuffers()
                0x02008fc4                buffer_list::RemoveHead()
                0x02008f3c                buffer_list::Remove(pool_buffer*)
                0x02009078                buffer_list::RemoveTail()
                0x020095ac                fifo_buffer_storage::LongSpaceAvail()
                0x02009718                fifo_buffer_storage::WriteData(unsigned char*, int)
                0x02008ce0                FreeBuffer
                0x02008ec8                buffer_list::InsertAfter(pool_buffer*, pool_buffer*)
                0x02009664                fifo_buffer_storage::SpaceAvail()
                0x02009584                fifo_buffer_storage::~fifo_buffer_storage()
 .text          0x02009b0c     0x182c D:\nburn\lib\NetBurner.a(arp.o)
                0x0200a840                FindAddArp(unsigned long)
                0x02009c68                sendGratuitousArp(int)
                0x02009b34                MacEqual(MACADR, MACADR)
                0x02009e70                InitializeArp()
                0x02009f18                FindArp(unsigned long)
                0x0200a174                SendArp(ArpRecord*, int)
                0x02009e24                GetInterface(unsigned long)
                0x0200b154                AddCheckArp(MACADR*, unsigned long, int)
                0x02009b94                SetMac(ArpRecord*, MACADR, int)
                0x0200a67c                DeleteArpFromIp(unsigned long)
                0x0200a01c                GetArpMacFromIp(unsigned long, MACADR&)
                0x0200ac7c                RouteOutVia(EFRAME*, unsigned long, pool_buffer*, int)
                0x0200a0d0                GetProperInterface(unsigned long)
                0x0200a790                FreeOneArp()
                0x0200b1e0                processArp(pool_buffer*, EFRAME*)
                0x02009c2c                NeedsArp(int)
                0x0200a2a4                GetNextArp(ArpRecord*)
                0x02009d38                RawSendArp(ArpRecord*, unsigned long, int)
                0x0200a69c                AgeArp()
                0x0200ae9c                RouteOut(EFRAME*, unsigned long, pool_buffer*)
                0x0200a36c                ShowArp()
                0x0200a4ac                DeleteArp(ArpRecord*)
                0x0200a314                GetFirstArp()
                0x0200a1e0                GetSrcIp
                0x0200aadc                IsMyAddressUsedArpDetect(unsigned short, int)
                0x02009b2c                Cleanup()
                0x02009b0c                IsNull(ArpRecord*)
                0x0200a400                fShowArp(__sFILE*)
                0x0200a074                AddPending(MACADR*, unsigned long, int)
 .text          0x0200b338      0x492 D:\nburn\lib\NetBurner.a(dns.o)
                0x0200b384                GetHostByName
 *fill*         0x0200b7ca        0x2 00
 .text          0x0200b7cc     0x1300 D:\nburn\lib\NetBurner.a(udp.o)
                0x0200c004                UDPPacket::Send(unsigned long, unsigned char)
                0x0200b914                UDPPacket::SetDestinationPort(unsigned short)
                0x0200b9d8                UDPPacket::GetPacketId()
                0x0200ba24                UDPPacket::GetSourceAddress()
                0x0200c74c                UDPPacket::UDPPacket()
                0x0200bdd4                UDPPacket::AddDataByte(unsigned char)
                0x0200c11c                UDPPacket::SendAndKeep(unsigned long, unsigned char)
                0x0200bd28                UDPPacket::AddData(unsigned char*, unsigned short)
                0x0200ba48                RegisterUDPFifo(unsigned short, os_fifo*)
                0x0200be1c                UDPPacket::AddData(char const*)
                0x0200b840                UDPPacket::UDPPacket(pool_buffer*)
                0x0200bedc                UDPPacket::SendViaInterface(unsigned long, int, unsigned char)
                0x0200b9c0                UDPPacket::GetIpPacket()
                0x0200c18c                UDPPacket::~UDPPacket()
                0x0200b7cc                GetUdpFifoRec(unsigned short)
                0x0200b950                UDPPacket::GetDataBuffer()
                0x0200bb10                RegisterUDPFifoWithNotify(unsigned short, os_fifo*, void (*)(os_fifo*, unsigned short))
                0x0200b88c                UDPPacket::UDPPacket(pool_buffer*)
                0x0200b984                UDPPacket::GetDataSize() const
                0x0200c1f8                ProcessIDPacket(UDPPacket&, int)
                0x0200bdf8                UDPPacket::AddDataWord(unsigned short)
                0x0200c790                process_udp(pool_buffer*, IPPKT*, unsigned short)
                0x0200be4c                UDPPacket::Validate()
                0x0200b930                UDPPacket::GetDestinationPort() const
                0x0200bbd8                UnregisterUDPFifo(unsigned short)
                0x0200ca0c                UDPPacket::UDPPacket(os_fifo*, unsigned long)
                0x0200b964                UDPPacket::SetDataSize(unsigned short)
                0x0200b9ac                UDPPacket::ResetData()
                0x0200c164                UDPPacket::~UDPPacket()
                0x0200ca6c                UDPPacket::UDPPacket(os_fifo*, unsigned long)
                0x0200b8d8                UDPPacket::SetSourcePort(unsigned short)
                0x0200b8f4                UDPPacket::GetSourcePort() const
                0x0200bca0                FixIDDataPacket(UDPPacket&, int)
                0x0200c1b4                UDPPacket::UDPPacket()
                0x0200ba00                UDPPacket::GetDestinationAddress()
 .text          0x0200cacc     0x5252 D:\nburn\lib\NetBurner.a(tcp.o)
                0x0200e18c                SendTcpRst(IPPKT*)
                0x0200d0d8                GetTcpState(int)
                0x0200d10c                GetTcpDState
                0x0200e3d0                InitTCP()
                0x0200edd0                _Socket_Private_read
                0x0200d08c                ShortSocketList::ShortSocketList()
                0x0200d140                SetOutOfOrderbuffers(int, unsigned char)
                0x0200cd0c                GetSocketRemotePort(int)
                0x0200d8f4                socket_struct::MyAdvertisedWindow()
                0x0200d750                SetSocketTxBuffers(int, int)
                0x0200ce20                setsockoption(int, int)
                0x0200dc40                TcpSend(socket_struct*, unsigned long, pool_buffer*, unsigned short, unsigned char)
                0x02010bf4                TCPTimerTask(void*)
                0x02011c14                process_tcp(pool_buffer*, IPPKT*, unsigned short)
                0x0201021c                socket_struct::ProcessRST()
                0x0200d184                TcpGetLastRxTime(int)
                0x0200f324                abortsocket
                0x0200f458                socket_struct::ProcessDataSegment(TCPPKT*, unsigned short, unsigned char*, pool_buffer*&)
                0x0200e9bc                HashSocketList::RemoveSocket(socket_struct*) const
                0x0200faf0                _Socket_Private_write
                0x0200ce58                getsockoption(int)
                0x02011160                socket_struct::ProcessAck(TCPPKT*)
                0x0200edec                socket_struct::SaveData(unsigned char*, unsigned short, unsigned char)
                0x0200e6ac                GetTcpRtxCount(int)
                0x0200cc30                fixoverlap(unsigned long, unsigned long, unsigned long&, unsigned long&)
                0x0200f0cc                socket_struct::SetTimer(unsigned long)
                0x02011138                connect(unsigned long, unsigned short, unsigned short, unsigned long)
                0x0200cee4                HashSocketList::HashSocketList()
                0x0200fd18                GetTcpSocket(TCPPKT*, unsigned long)
                0x0200d3d0                TcpGetRxBufferSpaceUsed(int)
                0x0200f738                socket_struct::DoRawSend()
                0x0200d410                ShowFdTcpSocket(int)
                0x0200d6d4                socket_struct::ClearPending(int)
                0x0200e720                ShortSocketList::findsocket(unsigned short, unsigned short, unsigned long) const
                0x02010d1c                connect(unsigned long, unsigned short, unsigned short, unsigned long, unsigned long)
                0x0200e638                TcpSendKeepAlive(int)
                0x0200ccac                getsocketerror(int)
                0x0200cecc                EnableTcpDebug(unsigned short)
                0x02010b00                socket_struct::ProcessTimer()
                0x0200f614                socket_struct::SetUpNextRetransmit()
                0x0200cedc                HashSocketList::HashSocketList()
                0x0200ec00                SockReadWithTimeout
                0x0200e5cc                GetFreeSocketCount()
                0x0201140c                socket_struct::ProcessFIN(TCPPKT*, unsigned short)
                0x0200d96c                FixHeaderAndSendTcp(pool_buffer*, IPPKT*, socket_struct*)
                0x0200ce88                setsocketackbuffers(int, unsigned char)
                0x0200ce00                socket_struct::CleanUpDeletedListener()
                0x0200cbec                FindListenSocket(unsigned short, unsigned long)
                0x0200da78                TcpSendwSum(socket_struct*, unsigned long, pool_buffer*, unsigned short, unsigned char, unsigned long)
                0x0200f14c                socket_struct::DoCleanup()
                0x0200eedc                socket_struct::TestOutofOrder()
                0x0200d1f4                TcpGetLastRxInterval(int)
                0x0200cacc                GetFirstSeq()
                0x02010080                FREESOCKET(socket_struct*)
                0x02010114                ShortSocketList::AddSocket(socket_struct*)
                0x0201061c                socket_struct::DoRetransmit(unsigned char)
                0x0200d09c                ShortSocketList::Init()
                0x0200e7c4                ShortSocketList::processTick()
                0x02010734                _Socket_Private_close
                0x02010874                accept(int, unsigned long*, unsigned short*, unsigned short)
                0x0200d094                ShortSocketList::ShortSocketList()
                0x0200d790                SetSocketRxBuffers(int, int)
                0x0200febc                listen(unsigned long, unsigned short, unsigned char)
                0x0200ceec                HashSocketList::Init() const
                0x0200cf04                ShortSocketList::GetFreeShort()
                0x0200ccdc                GetSocketRemoteAddr(int)
                0x0200eb28                HashSocketList::findsocket(unsigned short, unsigned short, unsigned long) const
                0x0200d364                WaitForSocketFlush(int, unsigned long)
                0x0200ced4                DumpTcpPacket(IPPKT*)
                0x0200ffc4                RemoveFromUserCloseList(socket_struct*)
                0x0200cb10                ValidateTCP(IPPKT*, unsigned short)
                0x0200e874                ShortSocketList::process(pool_buffer*, TCPPKT*, unsigned long) const
                0x0200cafc                socket_struct::SetState(int)
                0x0200d810                socket_struct::processoptions(pool_buffer*, TCPPKT*, IPPKT*)
                0x02010328                socket_struct::DoClose(int)
                0x0200fdd0                GetFreeSocket()
                0x0200cd3c                GetSocketLocalPort(int)
                0x0200ea74                HashSocketList::AddSocket(socket_struct*) const
                0x0200d04c                ShortSocketList::FreeShort(ShortSocket*) const
                0x0200cd6c                socket_struct::CalcRTO(unsigned long)
                0x0200e134                socket_struct::OpenWindow()
                0x0200e2a0                SendTcpSynRst(IPPKT*)
                0x0200d314                TcpAllDataAcked(int)
                0x0200fa70                clrsockoption(int, int)
                0x0200d1b8                TcpGetSocketState(int)
                0x0200cec4                DumpTcpDebug()
                0x0200d7d0                GetSocketLocalAddr(int)
                0x02011580                socket_struct::process(pool_buffer*, TCPPKT*)
                0x0200d114                RegisterTCPReadNotify
                0x0200dcd0                socket_struct::SendState(unsigned short, pool_buffer*)
 *fill*         0x02011d1e        0x2 00
 .text          0x02011d20      0x69e D:\nburn\lib\NetBurner.a(iosys.o)
                0x0201215c                SetDataAvail
                0x02011ffc                writeall
                0x0201205c                RawCheckSelects()
                0x02012108                SetHaveError
                0x02012198                RemoveSelect(PendingSelect*)
                0x02012120                SetWriteAvail
                0x02011eec                ZeroWaitSelect
                0x02012218                AddSelect(PendingSelect*)
                0x02011e40                FD_ISSET
                0x02011de8                ClrDataAvail
                0x02012270                select
                0x02011dd0                ClrWriteAvail
                0x020120d4                CheckSelects()
                0x02011fa0                writestring
                0x02011eb0                countbits(fd_set*)
                0x02011d20                FD_OVERLAP(fd_set*, fd_set*)
                0x02011f70                dataavail
                0x02011d5c                FD_ZERO
                0x02011e00                FD_SET
                0x02011db8                ClrHaveError
                0x02011e8c                countdwbits(unsigned long)
                0x02012310                ReadWithTimeout
                0x02011d74                FD_CLR
 *fill*         0x020123be        0x2 00
 .text          0x020123c0     0x1cb4 D:\nburn\lib\NetBurner.a(dhcpc.o)
                0x020125c8                CompareChaddr(unsigned char*, unsigned char*)
                0x02012be0                DhcpObject::DhcpObject(int)
                0x02012b0c                DhcpObject::StopBOOTP()
                0x02012af8                DhcpObject::StopProcessing()
                0x020124c8                DHCPMessage::ResetBytes()
                0x02012b70                DhcpObject::~DhcpObject()
                0x02014034                DhcpObject::staticDHCPTimer()
                0x020125ac                DHCPMessage::GetOptionData(unsigned char)
                0x02013ef0                DhcpObject::RenewDHCP()
                0x02012e00                DHCPMessage::MsgForInterface(int)
                0x02013784                DhcpObject::StopDHCP()
                0x020139dc                DhcpObject::ReTransmitPacket(unsigned long)
                0x02012e88                DhcpObject::UpdateIPRuntimeVars(unsigned char)
                0x02013ad0                DhcpObject::StartDHCP()
                0x02012bcc                SetDHCPDiscoverSeconds(unsigned long)
                0x02013e7c                DhcpObject::staticDHCPPacket(pool_buffer*)
                0x02012658                AddDhcpOptions(DHCPMessage&, int&)
                0x020137dc                DhcpObject::CreateDhcpRenewMsg(DHCPMessage&)
                0x02012604                ValidDhcpMsg(unsigned char*)
                0x02012cf0                DhcpObject::DhcpObject(int)
                0x02012b14                DhcpObject::~DhcpObject()
                0x020127b0                DhcpObject::DhcpConfig(DHCPMessage&)
                0x02013690                DhcpObject::CreateDhcpReleaseMsg(DHCPMessage&)
                0x02012acc                DhcpObject::GetRemainingDhcpLeaseTime()
                0x02012530                DHCPMessage::GetOptionData(unsigned char, int&)
                0x02012e38                DHCPMessage::DHCPMessage(unsigned char*)
                0x02013f1c                DhcpObject::DHCPTimer()
                0x020123c0                DHCPMessage::DHCPMessage()
                0x02013b00                GetDHCPAddress(int)
                0x02012e60                DHCPMessage::DHCPMessage(unsigned char*)
                0x02012aa0                DhcpObject::GetDHCPState()
                0x02012710                DhcpObject::BootpConfig(DHCPMessage&)
                0x02013b4c                GetDHCPAddressIfNecessary(int)
                0x02013aa4                DhcpObject::StartBOOTP()
                0x02013344                CreateDhcpDiscoverMsg(DHCPMessage&, int)
                0x020132d0                DHCPMessage::SendMsg(unsigned long, int)
                0x02012490                DHCPMessage::ClearOptions()
                0x02012ab0                DhcpObject::ValidDhcpLease()
                0x02013bfc                DhcpObject::DHCPPacket(pool_buffer*)
                0x02013538                DhcpObject::CreateBootpMsg(DHCPMessage&)
                0x02012efc                CreateDhcpRequestMsg(DHCPMessage&, DHCPMessage&, int)
                0x02012428                DHCPMessage::DHCPMessage()
                0x02013ec4                DhcpObject::RebindDHCP()
 .text          0x02014074       0x42 D:\nburn\lib\NetBurner.a(nbtime.o)
                0x02014094                set_time
                0x02014074                time
 *fill*         0x020140b6        0x2 00
 .text          0x020140b8      0x28e D:\nburn\lib\NetBurner.a(ntpclient.o)
                0x020140b8                MakeLongLong(unsigned long, unsigned long)
                0x020142cc                SetTimeNTPFromPool
                0x020140c8                GetLsb(unsigned long long)
                0x020140d4                GetMsb(unsigned long long)
                0x020142a0                SetNTPTime
                0x020140e0                GetNTPTime
 *fill*         0x02014346        0x2 00
 .text          0x02014348      0x42a D:\nburn\lib\NetBurner.a(netinterface.o)
                0x020146b4                InitializeNetwork(void (*)(pool_buffer*, EFRAME*, unsigned short), void (*)(pool_buffer*, EFRAME*))
                0x020143d8                InterfaceIP(int)
                0x020144cc                GetEframe(pool_buffer*)
                0x02014654                SaveIfConfig(ConfigRecord*, int)
                0x02014348                GetFirstInterface()
                0x02014684                GetIfConfig(int)
                0x02014488                InterfaceMAC(int)
                0x020143ac                GetInterFaceBlock(int)
                0x02014404                InterfaceDNS(int)
                0x02014430                InterfaceMASK(int)
                0x02014368                GetnextInterface(int)
                0x02014710                TransmitBuffer(pool_buffer*, int)
                0x02014538                DisableMulticast(MACADR, int)
                0x02014598                RegisterInterface(_InterfaceBlock*)
                0x020144e0                EnableMulticast(MACADR, int)
                0x02014620                Removeinterface(int)
                0x02014590                StopNetworks()
                0x0201445c                InterfaceGate(int)
 *fill*         0x02014772        0x2 00
 .text          0x02014774      0x5c8 D:\nburn\lib\NetBurner.a(taskmon.o)
                0x02014c7c                ProcessTaskPacket(UDPPacket&, int)
                0x02014774                EnableTaskMonitor()
                0x02014788                BufferDumpTCBState(os_tcb*)
 .text          0x02014d3c      0x538 D:\nburn\lib\NetBurner.a(autoupdate.o)
                0x020151c4                ProcessAutoUpdatePacket(UDPPacket&)
                0x02014ef8                DoData(UDPPacket&)
                0x02014d3c                EnableAutoUpdate
                0x02014d50                DoReboot()
                0x02014d80                DoExecute(UDPPacket&, int)
                0x02014fe8                DoStart(UDPPacket&)
 .text          0x02015274       0x52 D:\nburn\lib\NetBurner.a(device.o)
                0x02015294                DeviceInitializeSem
                0x02015274                DeviceGetQspiSem()
                0x02015284                DeviceGetI2cSem()
 *fill*         0x020152c6        0x2 00
 .text          0x020152c8      0x6d8 D:\nburn\lib\NetBurner.a(system.o)
                0x02015340                GetUserParameters
                0x020156a0                UpdateConfigRecord_Num
                0x02015314                RawGetConfig
                0x020152c8                isvalidcr
                0x0201585c                SetupDialog
                0x020153b8                ReadLine
                0x02015848                UpdateConfigRecord
                0x02015578                IpQuestion
                0x0201562c                SaveUserParameters
                0x02015350                ShowChange
 .text          0x020159a0       0x26 D:\nburn\lib\NetBurner.a(new_ops.o)
                0x020159a0                operator new(unsigned long)
 *fill*         0x020159c6        0x2 00
 .text          0x020159c8      0x3d8 D:\nburn\lib\MOD5270.a(ioboard.o)
                0x02015b60                getleds
                0x02015d48                getCPLDver
                0x02015c9c                getDecimal
                0x02015b00                putleds
                0x02015b98                putdisp
                0x02015c5c                putDecimal
                0x02015d74                getCPLDrev
                0x020159c8                InitChipBoardSelect
                0x02015c10                getdisp
                0x02015ab0                getdipsw
                0x02015cd0                putSegments
                0x02015a20                OnModDev70
 .text          0x02015da0     0x1c16 D:\nburn\lib\MOD5270.a(serial.o)
                0x0201793c                real_SER0_ISR
                0x02015da0                WakeTx(int)
                0x02016238                Serial485ForceTxActive(int, int)
                0x02016d30                SerialClose
                0x02016c40                SendBreak
                0x02016e78                OpenSerial
                0x0201684c                GetUartErrorReg
                0x020169e0                fShowSerialData(__sFILE*)
                0x02016068                fake_SER0_ISR()
                0x02016150                fake_SER2_ISR()
                0x020160c0                SER1_ISR
                0x020161a4                SerialEnableTxFlow
                0x020161ec                SerialEnableRxFlow
                0x02015e38                DoSerIsr(int)
                0x02016724                Serial485HalfDupMode
                0x020160bc                fake_SER1_ISR()
                0x02016538                SerialEnableHwRxFlow
                0x020174d4                serread
                0x0201781c                BasePutChar(int, unsigned char)
                0x020174f0                BaseGetChar(int)
                0x02017978                real_SER2_ISR
                0x020172b8                serreadwto
                0x020176fc                serwriteaddress
                0x02016110                real_SER1_ISR
                0x02017598                serwrite
                0x02016e54                serexternalclose
                0x0201606c                SER0_ISR
                0x02016154                SER2_ISR
                0x02016334                SerialEnableHwTxFlow
 *fill*         0x020179b6        0x2 00
 .text          0x020179b8     0x1616 D:\nburn\lib\MOD5270.a(ethernet.o)
                0x02018120                AddEthernetInterface()
                0x02017b9c                StopEnet()
                0x02017e34                ResetEnet()
                0x02017ccc                FindSpeedDuplex()
                0x020179b8                read_eth_addr(MACADR*)
                0x020181c8                WarmEnetReset()
                0x02018e20                real_rxenetisr
                0x020179e4                fake_rxenetisr()
                0x02018a88                DoRX(pool_buffer*, unsigned short)
                0x020179e8                rxenetisr
                0x02017a38                fake_txenetisr()
                0x02018268                EnablePHY()
                0x02018048                EthMultifunc(MACADR, unsigned char)
                0x02017a8c                GetMII(unsigned char, unsigned char)
                0x020185a8                ProcessLinkStatus()
                0x02018320                ResetEnetPart2()
                0x02017a3c                txenetisr
                0x02017b10                SetMII(unsigned char, unsigned char, unsigned short)
                0x02018064                InitializeEthernet()
                0x02018890                real_txenetisr
                0x02017bcc                DisablePHY()
                0x020182e0                ManualEthernetConfig(unsigned char, unsigned char, unsigned char)
                0x02017bfc                FindPHYAddr()
                0x0201873c                EthTransmitBuffer(pool_buffer*)
                0x02018c80                Ether_ProcessTask(void*)
 *fill*         0x02018fce        0x2 00
 .text          0x02018fd0     0x1774 D:\nburn\lib\MOD5270.a(etherprint.o)
                0x0201a66c                EtherLink()
                0x02018fd0                EtherSpeed100()
                0x0201a660                denet()
                0x0201a304                ShowFECRegisters()
                0x020190a8                ShowMII(unsigned char, unsigned char, char const*, unsigned short)
                0x0201a6a0                elink()
                0x0201a654                dEnet()
                0x02018ff0                SwitchMIIPage(unsigned long)
                0x02018fe0                EtherDuplex()
                0x0201901c                showbinary(unsigned short, unsigned short)
                0x02019110                ShowPhyterMII()
 .text          0x0201a744      0x196 D:\nburn\lib\MOD5270.a(emulticast.o)
                0x0201a828                EthDisableMulticast(MACADR)
                0x0201a784                EthEnableMulticast(MACADR)
                0x0201a744                GetMultiCastCRC(MACADR)
 *fill*         0x0201a8da        0x2 00
 .text          0x0201a8dc      0x1b4 D:\nburn\lib\NetBurner.a(extraio.o)
                0x0201a90c                ExpandWrite(int, char const*, int)
                0x0201a93c                ExpandClose(int)
                0x0201a96c                InitExtras()
                0x0201a9a8                GetExtraFD
                0x0201a8dc                ExpandRead(int, char*, int)
                0x0201aa24                FreeExtraFd
                0x0201aa5c                GetExtraData
 .text          0x0201aa90        0x0 d:/nburn/gcc-m68k/bin/../lib/gcc/m68k-elf/4.2.1/../../../../m68k-elf/lib/m5208\libstdc++.a(string-inst.o)
 .text          0x0201aa90        0x0 d:/nburn/gcc-m68k/bin/../lib/gcc/m68k-elf/4.2.1/../../../../m68k-elf/lib/m5208\libstdc++.a(del_op.o)
 .text          0x0201aa90        0x0 d:/nburn/gcc-m68k/bin/../lib/gcc/m68k-elf/4.2.1/../../../../m68k-elf/lib/m5208\libstdc++.a(eh_personality.o)
 .text          0x0201aa90        0x0 d:/nburn/gcc-m68k/bin/../lib/gcc/m68k-elf/4.2.1/../../../../m68k-elf/lib/m5208\libstdc++.a(eh_alloc.o)
 .text          0x0201aa90        0x0 d:/nburn/gcc-m68k/bin/../lib/gcc/m68k-elf/4.2.1/../../../../m68k-elf/lib/m5208\libstdc++.a(functexcept.o)
 .text          0x0201aa90        0x0 d:/nburn/gcc-m68k/bin/../lib/gcc/m68k-elf/4.2.1/../../../../m68k-elf/lib/m5208\libstdc++.a(ios_failure.o)
 .text          0x0201aa90        0x0 d:/nburn/gcc-m68k/bin/../lib/gcc/m68k-elf/4.2.1/../../../../m68k-elf/lib/m5208\libstdc++.a(stdexcept.o)
 .text          0x0201aa90        0x0 d:/nburn/gcc-m68k/bin/../lib/gcc/m68k-elf/4.2.1/../../../../m68k-elf/lib/m5208\libstdc++.a(eh_throw.o)
 .text          0x0201aa90        0x0 d:/nburn/gcc-m68k/bin/../lib/gcc/m68k-elf/4.2.1/../../../../m68k-elf/lib/m5208\libstdc++.a(new_handler.o)
 .text          0x0201aa90        0x0 d:/nburn/gcc-m68k/bin/../lib/gcc/m68k-elf/4.2.1/../../../../m68k-elf/lib/m5208\libstdc++.a(eh_globals.o)
 .text          0x0201aa90        0x0 d:/nburn/gcc-m68k/bin/../lib/gcc/m68k-elf/4.2.1/../../../../m68k-elf/lib/m5208\libstdc++.a(eh_exception.o)
 .text          0x0201aa90        0x0 d:/nburn/gcc-m68k/bin/../lib/gcc/m68k-elf/4.2.1/../../../../m68k-elf/lib/m5208\libstdc++.a(eh_catch.o)
 .text          0x0201aa90        0x0 d:/nburn/gcc-m68k/bin/../lib/gcc/m68k-elf/4.2.1/../../../../m68k-elf/lib/m5208\libstdc++.a(eh_terminate.o)
 .text          0x0201aa90        0x0 d:/nburn/gcc-m68k/bin/../lib/gcc/m68k-elf/4.2.1/../../../../m68k-elf/lib/m5208\libstdc++.a(bad_typeid.o)
 .text          0x0201aa90        0x0 d:/nburn/gcc-m68k/bin/../lib/gcc/m68k-elf/4.2.1/../../../../m68k-elf/lib/m5208\libstdc++.a(eh_call.o)
 .text          0x0201aa90        0x0 d:/nburn/gcc-m68k/bin/../lib/gcc/m68k-elf/4.2.1/../../../../m68k-elf/lib/m5208\libstdc++.a(class_type_info.o)
 .text          0x0201aa90        0x0 d:/nburn/gcc-m68k/bin/../lib/gcc/m68k-elf/4.2.1/../../../../m68k-elf/lib/m5208\libstdc++.a(eh_term_handler.o)
 .text          0x0201aa90        0x0 d:/nburn/gcc-m68k/bin/../lib/gcc/m68k-elf/4.2.1/../../../../m68k-elf/lib/m5208\libstdc++.a(bad_cast.o)
 .text          0x0201aa90        0x0 d:/nburn/gcc-m68k/bin/../lib/gcc/m68k-elf/4.2.1/../../../../m68k-elf/lib/m5208\libstdc++.a(eh_unex_handler.o)
 .text          0x0201aa90        0x0 d:/nburn/gcc-m68k/bin/../lib/gcc/m68k-elf/4.2.1/../../../../m68k-elf/lib/m5208\libstdc++.a(si_class_type_info.o)
 .text          0x0201aa90        0x0 d:/nburn/gcc-m68k/bin/../lib/gcc/m68k-elf/4.2.1/../../../../m68k-elf/lib/m5208\libstdc++.a(vterminate.o)
 .text          0x0201aa90     0x4ae6 d:/nburn/gcc-m68k/bin/../lib/gcc/m68k-elf/4.2.1/../../../../m68k-elf/lib/m5208\libstdc++.a(cp-demangle.o)
                0x0201f49e                __cxa_demangle
 *fill*         0x0201f576        0x2 00
 .text          0x0201f578        0x0 d:/nburn/gcc-m68k/bin/../lib/gcc/m68k-elf/4.2.1/../../../../m68k-elf/lib/m5208\libstdc++.a(tinfo.o)
 .text          0x0201f578        0x0 d:/nburn/gcc-m68k/bin/../lib/gcc/m68k-elf/4.2.1/../../../../m68k-elf/lib/m5208\libstdc++.a(eh_type.o)
 .text          0x0201f578      0xba0 d:/nburn/gcc-m68k/bin/../lib/gcc/m68k-elf/4.2.1/m5208\libgcc.a(_double.o)
                0x02020076                __cmpdf2
                0x0201f5d8                __adddf3
                0x0201ff40                __negdf2
                0x0201fc50                __divdf3
                0x0201ff9e                __cmpdf2_internal
                0x0201fa74                __muldf3
                0x0201f5d2                __subdf3
 .text          0x02020118       0x74 d:/nburn/gcc-m68k/bin/../lib/gcc/m68k-elf/4.2.1/m5208\libgcc.a(_floatex.o)
                0x02020124                $_exception_handler
                0x02020118                __clear_sticky_bit
 .text          0x0202018c       0x22 d:/nburn/gcc-m68k/bin/../lib/gcc/m68k-elf/4.2.1/m5208\libgcc.a(_ltdf2.o)
                0x0202018c                __ltdf2
 *fill*         0x020201ae        0x2 00
 .text          0x020201b0       0x72 d:/nburn/gcc-m68k/bin/../lib/gcc/m68k-elf/4.2.1/m5208\libgcc.a(_muldi3.o)
                0x020201b0                __muldi3
 *fill*         0x02020222        0x2 00
 .text          0x02020224       0x7a d:/nburn/gcc-m68k/bin/../lib/gcc/m68k-elf/4.2.1/m5208\libgcc.a(_fixunsdfsi.o)
                0x02020224                __fixunsdfsi
 *fill*         0x0202029e        0x2 00
 .text          0x020202a0      0x49a d:/nburn/gcc-m68k/bin/../lib/gcc/m68k-elf/4.2.1/m5208\libgcc.a(fpgnulib.o)
                0x02020720                __fixsfsi
                0x02020408                __floatsidf
                0x020204de                __extendsfdf2
                0x02020396                __floatunsidf
                0x020206a0                __fixdfsi
                0x020204c4                __floatsisf
                0x02020578                __truncdfsf2
                0x020202a0                __unordsf2
                0x020204aa                __floatunsisf
                0x02020302                __unorddf2
 *fill*         0x0202073a        0x2 00
 .text          0x0202073c     0x1f0e d:/nburn/gcc-m68k/bin/../lib/gcc/m68k-elf/4.2.1/m5208\libgcc.a(unwind-dw2.o)
                0x02020ade                _Unwind_GetIPInfo
                0x020207c2                _Unwind_GetIP
                0x020224ae                _Unwind_Resume_or_Rethrow
                0x020207f4                _Unwind_GetRegionStart
                0x020221b6                _Unwind_Backtrace
                0x020207b2                _Unwind_GetCFA
                0x020213ac                __frame_state_for
                0x0202253c                _Unwind_Resume
                0x02020824                _Unwind_DeleteException
                0x020222d2                _Unwind_RaiseException
                0x020207d2                _Unwind_SetIP
                0x02020814                _Unwind_GetTextRelBase
                0x02020aba                _Unwind_FindEnclosingFunction
                0x020207e4                _Unwind_GetLanguageSpecificData
                0x020225c2                _Unwind_ForcedUnwind
                0x02020842                _Unwind_SetGR
                0x020208a8                _Unwind_GetGR
                0x02020804                _Unwind_GetDataRelBase
 *fill*         0x0202264a        0x2 00
 .text          0x0202264c     0x126c d:/nburn/gcc-m68k/bin/../lib/gcc/m68k-elf/4.2.1/m5208\libgcc.a(unwind-dw2-fde.o)
                0x0202376a                _Unwind_Find_FDE
                0x02022f60                __register_frame
                0x02022f3e                __register_frame_table
                0x020226c2                __register_frame_info_bases
                0x020236a2                __deregister_frame_info
                0x020235e4                __deregister_frame_info_bases
                0x0202272e                __register_frame_info_table_bases
                0x020236ac                __deregister_frame
                0x02022780                __register_frame_info_table
                0x02022712                __register_frame_info
 .text          0x020238b8       0x22 d:/nburn/gcc-m68k/bin/../lib/gcc/m68k-elf/4.2.1/m5208\libgcc.a(_gedf2.o)
                0x020238b8                __gedf2
 *fill*         0x020238da        0x2 00
 .text          0x020238dc       0x18 d:/nburn/gcc-m68k/bin/../lib/gcc/m68k-elf/4.2.1/../../../../m68k-elf/lib/m5208\libc.a(lib_a-abort.o)
                0x020238dc                abort
 .text          0x020238f4       0x20 d:/nburn/gcc-m68k/bin/../lib/gcc/m68k-elf/4.2.1/../../../../m68k-elf/lib/m5208\libc.a(lib_a-asctime.o)
                0x020238f4                asctime
 .text          0x02023914       0x66 d:/nburn/gcc-m68k/bin/../lib/gcc/m68k-elf/4.2.1/../../../../m68k-elf/lib/m5208\libc.a(lib_a-asctime_r.o)
                0x02023914                asctime_r
 *fill*         0x0202397a        0x2 00
 .text          0x0202397c       0x1e d:/nburn/gcc-m68k/bin/../lib/gcc/m68k-elf/4.2.1/../../../../m68k-elf/lib/m5208\libc.a(lib_a-cxa_atexit.o)
                0x0202397c                __cxa_atexit
 *fill*         0x0202399a        0x2 00
 .text          0x0202399c        0xe d:/nburn/gcc-m68k/bin/../lib/gcc/m68k-elf/4.2.1/../../../../m68k-elf/lib/m5208\libc.a(lib_a-errno.o)
                0x0202399c                __errno
 *fill*         0x020239aa        0x2 00
 .text          0x020239ac       0x24 d:/nburn/gcc-m68k/bin/../lib/gcc/m68k-elf/4.2.1/../../../../m68k-elf/lib/m5208\libc.a(lib_a-fiprintf.o)
                0x020239ac                fiprintf
 .text          0x020239d0       0xaa d:/nburn/gcc-m68k/bin/../lib/gcc/m68k-elf/4.2.1/../../../../m68k-elf/lib/m5208\libc.a(lib_a-fputc.o)
                0x02023a1e                _fputc_r
                0x020239d0                fputc
 *fill*         0x02023a7a        0x2 00
 .text          0x02023a7c       0x90 d:/nburn/gcc-m68k/bin/../lib/gcc/m68k-elf/4.2.1/../../../../m68k-elf/lib/m5208\libc.a(lib_a-fputs.o)
                0x02023a7c                _fputs_r
                0x02023af2                fputs
 .text          0x02023b0c      0x37e d:/nburn/gcc-m68k/bin/../lib/gcc/m68k-elf/4.2.1/../../../../m68k-elf/lib/m5208\libc.a(lib_a-fvwrite.o)
                0x02023b0c                __sfvwrite_r
 *fill*         0x02023e8a        0x2 00
 .text          0x02023e8c       0x9e d:/nburn/gcc-m68k/bin/../lib/gcc/m68k-elf/4.2.1/../../../../m68k-elf/lib/m5208\libc.a(lib_a-fwrite.o)
                0x02023e8c                _fwrite_r
                0x02023f08                fwrite
 *fill*         0x02023f2a        0x2 00
 .text          0x02023f2c       0x32 d:/nburn/gcc-m68k/bin/../lib/gcc/m68k-elf/4.2.1/../../../../m68k-elf/lib/m5208\libc.a(lib_a-getchar.o)
                0x02023f2c                getchar
                0x02023f46                _getchar_r
 *fill*         0x02023f5e        0x2 00
 .text          0x02023f60       0xcc d:/nburn/gcc-m68k/bin/../lib/gcc/m68k-elf/4.2.1/../../../../m68k-elf/lib/m5208\libc.a(lib_a-getc.o)
                0x02023fc4                _getc_r
                0x02023f60                getc
 .text          0x0202402c        0xe d:/nburn/gcc-m68k/bin/../lib/gcc/m68k-elf/4.2.1/../../../../m68k-elf/lib/m5208\libc.a(lib_a-gettzinfo.o)
                0x0202402c                __gettzinfo
 *fill*         0x0202403a        0x2 00
 .text          0x0202403c       0x20 d:/nburn/gcc-m68k/bin/../lib/gcc/m68k-elf/4.2.1/../../../../m68k-elf/lib/m5208\libc.a(lib_a-gmtime.o)
                0x0202403c                gmtime
 .text          0x0202405c       0x1a d:/nburn/gcc-m68k/bin/../lib/gcc/m68k-elf/4.2.1/../../../../m68k-elf/lib/m5208\libc.a(lib_a-gmtime_r.o)
                0x0202405c                gmtime_r
 *fill*         0x02024076        0x2 00
 .text          0x02024078        0x0 d:/nburn/gcc-m68k/bin/../lib/gcc/m68k-elf/4.2.1/../../../../m68k-elf/lib/m5208\libc.a(lib_a-impure.o)
 .text          0x02024078       0x54 d:/nburn/gcc-m68k/bin/../lib/gcc/m68k-elf/4.2.1/../../../../m68k-elf/lib/m5208\libc.a(lib_a-iprintf.o)
                0x02024078                _iprintf_r
                0x020240a2                iprintf
 .text          0x020240cc       0x18 d:/nburn/gcc-m68k/bin/../lib/gcc/m68k-elf/4.2.1/../../../../m68k-elf/lib/m5208\libc.a(lib_a-lcltime_r.o)
                0x020240cc                localtime_r
 .text          0x020240e4       0x32 d:/nburn/gcc-m68k/bin/../lib/gcc/m68k-elf/4.2.1/../../../../m68k-elf/lib/m5208\libc.a(lib_a-malloc.o)
                0x020240fe                malloc
                0x020240e4                free
 *fill*         0x02024116        0x2 00
 .text          0x02024118      0x78c d:/nburn/gcc-m68k/bin/../lib/gcc/m68k-elf/4.2.1/../../../../m68k-elf/lib/m5208\libc.a(lib_a-mallocr.o)
                0x02024118                _malloc_r
 .text          0x020248a4       0xd2 d:/nburn/gcc-m68k/bin/../lib/gcc/m68k-elf/4.2.1/../../../../m68k-elf/lib/m5208\libc.a(lib_a-memchr.o)
                0x020248a4                memchr
 *fill*         0x02024976        0x2 00
 .text          0x02024978       0x72 d:/nburn/gcc-m68k/bin/../lib/gcc/m68k-elf/4.2.1/../../../../m68k-elf/lib/m5208\libc.a(lib_a-memcmp.o)
                0x02024978                memcmp
 *fill*         0x020249ea        0x2 00
 .text          0x020249ec       0xb6 d:/nburn/gcc-m68k/bin/../lib/gcc/m68k-elf/4.2.1/../../../../m68k-elf/lib/m5208\libc.a(lib_a-memmove.o)
                0x020249ec                memmove
 *fill*         0x02024aa2        0x2 00
 .text          0x02024aa4      0x628 d:/nburn/gcc-m68k/bin/../lib/gcc/m68k-elf/4.2.1/../../../../m68k-elf/lib/m5208\libc.a(lib_a-mktm_r.o)
                0x02024aa4                __tzcalc_limits
                0x02024ca4                _mktm_r
 .text          0x020250cc      0x16a d:/nburn/gcc-m68k/bin/../lib/gcc/m68k-elf/4.2.1/../../../../m68k-elf/lib/m5208\libc.a(lib_a-putc.o)
                0x02025186                _putc_r
                0x020250cc                putc
 *fill*         0x02025236        0x2 00
 .text          0x02025238       0x8a d:/nburn/gcc-m68k/bin/../lib/gcc/m68k-elf/4.2.1/../../../../m68k-elf/lib/m5208\libc.a(lib_a-puts.o)
                0x02025238                _puts_r
                0x020252ac                puts
 *fill*         0x020252c2        0x2 00
 .text          0x020252c4       0x1c d:/nburn/gcc-m68k/bin/../lib/gcc/m68k-elf/4.2.1/../../../../m68k-elf/lib/m5208\libc.a(lib_a-realloc.o)
                0x020252c4                realloc
 .text          0x020252e0      0x502 d:/nburn/gcc-m68k/bin/../lib/gcc/m68k-elf/4.2.1/../../../../m68k-elf/lib/m5208\libc.a(lib_a-reallocr.o)
                0x020252e0                _realloc_r
 *fill*         0x020257e2        0x2 00
 .text          0x020257e4       0x4e d:/nburn/gcc-m68k/bin/../lib/gcc/m68k-elf/4.2.1/../../../../m68k-elf/lib/m5208\libc.a(lib_a-rget.o)
                0x0202581e                __srget
                0x020257e4                __srget_r
 *fill*         0x02025832        0x2 00
 .text          0x02025834      0x1ee d:/nburn/gcc-m68k/bin/../lib/gcc/m68k-elf/4.2.1/../../../../m68k-elf/lib/m5208\libc.a(lib_a-setvbuf.o)
                0x02025834                setvbuf
 *fill*         0x02025a22        0x2 00
 .text          0x02025a24      0x270 d:/nburn/gcc-m68k/bin/../lib/gcc/m68k-elf/4.2.1/../../../../m68k-elf/lib/m5208\libc.a(lib_a-signal.o)
                0x02025c18                _signal_r
                0x02025b38                _raise_r
                0x02025a9e                __sigtramp_r
                0x02025c7c                signal
                0x02025a8e                _init_signal
                0x02025a24                _init_signal_r
                0x02025b22                __sigtramp
                0x02025c02                raise
 .text          0x02025c94       0x42 d:/nburn/gcc-m68k/bin/../lib/gcc/m68k-elf/4.2.1/../../../../m68k-elf/lib/m5208\libc.a(lib_a-signalr.o)
                0x02025ca0                _kill_r
                0x02025c94                _getpid_r
 *fill*         0x02025cd6        0x2 00
 .text          0x02025cd8       0xba d:/nburn/gcc-m68k/bin/../lib/gcc/m68k-elf/4.2.1/../../../../m68k-elf/lib/m5208\libc.a(lib_a-siprintf.o)
                0x02025d36                _siprintf_r
                0x02025cd8                siprintf
 *fill*         0x02025d92        0x2 00
 .text          0x02025d94       0xba d:/nburn/gcc-m68k/bin/../lib/gcc/m68k-elf/4.2.1/../../../../m68k-elf/lib/m5208\libc.a(lib_a-sprintf.o)
                0x02025df2                _sprintf_r
                0x02025d94                sprintf
 *fill*         0x02025e4e        0x2 00
 .text          0x02025e50       0xe0 d:/nburn/gcc-m68k/bin/../lib/gcc/m68k-elf/4.2.1/../../../../m68k-elf/lib/m5208\libc.a(lib_a-sscanf.o)
                0x02025ec4                sscanf
                0x02025e5a                _sscanf_r
 .text          0x02025f30       0x7c d:/nburn/gcc-m68k/bin/../lib/gcc/m68k-elf/4.2.1/../../../../m68k-elf/lib/m5208\libc.a(lib_a-strcat.o)
                0x02025f30                strcat
 .text          0x02025fac       0x70 d:/nburn/gcc-m68k/bin/../lib/gcc/m68k-elf/4.2.1/../../../../m68k-elf/lib/m5208\libc.a(lib_a-strcmp.o)
                0x02025fac                strcmp
 .text          0x0202601c       0x22 d:/nburn/gcc-m68k/bin/../lib/gcc/m68k-elf/4.2.1/../../../../m68k-elf/lib/m5208\libc.a(lib_a-strcpy.o)
                0x0202601c                strcpy
 *fill*         0x0202603e        0x2 00
 .text          0x02026040       0x1a d:/nburn/gcc-m68k/bin/../lib/gcc/m68k-elf/4.2.1/../../../../m68k-elf/lib/m5208\libc.a(lib_a-strlen.o)
                0x02026040                strlen
 *fill*         0x0202605a        0x2 00
 .text          0x0202605c       0xda d:/nburn/gcc-m68k/bin/../lib/gcc/m68k-elf/4.2.1/../../../../m68k-elf/lib/m5208\libc.a(lib_a-strncmp.o)
                0x0202605c                strncmp
 *fill*         0x02026136        0x2 00
 .text          0x02026138      0x19e d:/nburn/gcc-m68k/bin/../lib/gcc/m68k-elf/4.2.1/../../../../m68k-elf/lib/m5208\libc.a(lib_a-strtoul.o)
                0x020262b8                strtoul
                0x02026138                _strtoul_r
 *fill*         0x020262d6        0x2 00
 .text          0x020262d8        0x0 d:/nburn/gcc-m68k/bin/../lib/gcc/m68k-elf/4.2.1/../../../../m68k-elf/lib/m5208\libc.a(lib_a-tzvars.o)
 .text          0x020262d8     0x1280 d:/nburn/gcc-m68k/bin/../lib/gcc/m68k-elf/4.2.1/../../../../m68k-elf/lib/m5208\libc.a(lib_a-vfiprintf.o)
                0x0202753a                vfiprintf
                0x0202631c                _vfiprintf_r
 .text          0x02027558     0x1fac d:/nburn/gcc-m68k/bin/../lib/gcc/m68k-elf/4.2.1/../../../../m68k-elf/lib/m5208\libc.a(lib_a-vfprintf.o)
                0x0202759c                _vfprintf_r
                0x020294e6                vfprintf
 .text          0x02029504     0x11ec d:/nburn/gcc-m68k/bin/../lib/gcc/m68k-elf/4.2.1/../../../../m68k-elf/lib/m5208\libc.a(lib_a-vfscanf.o)
                0x0202a61c                __svfscanf
                0x0202a63a                _vfscanf_r
                0x0202a69e                vfscanf
                0x02029504                __svfscanf_r
 .text          0x0202a6f0      0x124 d:/nburn/gcc-m68k/bin/../lib/gcc/m68k-elf/4.2.1/../../../../m68k-elf/lib/m5208\libc.a(lib_a-wbuf.o)
                0x0202a6f0                __swbuf_r
                0x0202a7fa                __swbuf
 .text          0x0202a814       0x7c d:/nburn/gcc-m68k/bin/../lib/gcc/m68k-elf/4.2.1/../../../../m68k-elf/lib/m5208\libc.a(lib_a-wcrtomb.o)
                0x0202a814                _wcrtomb_r
                0x0202a874                wcrtomb
 .text          0x0202a890      0x130 d:/nburn/gcc-m68k/bin/../lib/gcc/m68k-elf/4.2.1/../../../../m68k-elf/lib/m5208\libc.a(lib_a-wcsrtombs.o)
                0x0202a890                _wcsrtombs_r
                0x0202a99e                wcsrtombs
 .text          0x0202a9c0      0x452 d:/nburn/gcc-m68k/bin/../lib/gcc/m68k-elf/4.2.1/../../../../m68k-elf/lib/m5208\libc.a(lib_a-wctomb_r.o)
                0x0202a9c0                _wctomb_r
 *fill*         0x0202ae12        0x2 00
 .text          0x0202ae14      0x130 d:/nburn/gcc-m68k/bin/../lib/gcc/m68k-elf/4.2.1/../../../../m68k-elf/lib/m5208\libc.a(lib_a-wsetup.o)
                0x0202ae14                __swsetup
 .text          0x0202af44       0xe8 d:/nburn/gcc-m68k/bin/../lib/gcc/m68k-elf/4.2.1/../../../../m68k-elf/lib/m5208\libc.a(lib_a-__atexit.o)
                0x0202af44                __register_exitproc
 .text          0x0202b02c        0x0 d:/nburn/gcc-m68k/bin/../lib/gcc/m68k-elf/4.2.1/../../../../m68k-elf/lib/m5208\libc.a(lib_a-ctype_.o)
 .text          0x0202b02c     0x160a d:/nburn/gcc-m68k/bin/../lib/gcc/m68k-elf/4.2.1/../../../../m68k-elf/lib/m5208\libc.a(lib_a-dtoa.o)
                0x0202b1de                _dtoa_r
 *fill*         0x0202c636        0x2 00
 .text          0x0202c638      0x198 d:/nburn/gcc-m68k/bin/../lib/gcc/m68k-elf/4.2.1/../../../../m68k-elf/lib/m5208\libc.a(lib_a-fflush.o)
                0x0202c638                fflush
 .text          0x0202c7d0      0x25e d:/nburn/gcc-m68k/bin/../lib/gcc/m68k-elf/4.2.1/../../../../m68k-elf/lib/m5208\libc.a(lib_a-findfp.o)
                0x0202c82a                __sinit
                0x0202c8e2                __sfmoreglue
                0x0202c8d0                _cleanup
                0x0202c8b6                _cleanup_r
                0x0202c950                __sfp
 *fill*         0x0202ca2e        0x2 00
 .text          0x0202ca30      0x248 d:/nburn/gcc-m68k/bin/../lib/gcc/m68k-elf/4.2.1/../../../../m68k-elf/lib/m5208\libc.a(lib_a-fread.o)
                0x0202cc56                fread
                0x0202ca30                _fread_r
 .text          0x0202cc78      0x422 d:/nburn/gcc-m68k/bin/../lib/gcc/m68k-elf/4.2.1/../../../../m68k-elf/lib/m5208\libc.a(lib_a-freer.o)
                0x0202cd68                _free_r
                0x0202cc78                _malloc_trim_r
 *fill*         0x0202d09a        0x2 00
 .text          0x0202d09c       0xe4 d:/nburn/gcc-m68k/bin/../lib/gcc/m68k-elf/4.2.1/../../../../m68k-elf/lib/m5208\libc.a(lib_a-fwalk.o)
                0x0202d09c                _fwalk
                0x0202d10c                _fwalk_reent
 .text          0x0202d180       0x2a d:/nburn/gcc-m68k/bin/../lib/gcc/m68k-elf/4.2.1/../../../../m68k-elf/lib/m5208\libc.a(lib_a-iswspace.o)
                0x0202d180                iswspace
 *fill*         0x0202d1aa        0x2 00
 .text          0x0202d1ac       0xa6 d:/nburn/gcc-m68k/bin/../lib/gcc/m68k-elf/4.2.1/../../../../m68k-elf/lib/m5208\libc.a(lib_a-locale.o)
                0x0202d1da                _setlocale_r
                0x0202d1ac                __locale_charset
                0x0202d1ba                _localeconv_r
                0x0202d23a                setlocale
                0x0202d1c8                localeconv
 *fill*         0x0202d252        0x2 00
 .text          0x0202d254      0x178 d:/nburn/gcc-m68k/bin/../lib/gcc/m68k-elf/4.2.1/../../../../m68k-elf/lib/m5208\libc.a(lib_a-makebuf.o)
                0x0202d254                __smakebuf
 .text          0x0202d3cc       0x8c d:/nburn/gcc-m68k/bin/../lib/gcc/m68k-elf/4.2.1/../../../../m68k-elf/lib/m5208\libc.a(lib_a-mbrtowc.o)
                0x0202d436                mbrtowc
                0x0202d3cc                _mbrtowc_r
 .text          0x0202d458       0x56 d:/nburn/gcc-m68k/bin/../lib/gcc/m68k-elf/4.2.1/../../../../m68k-elf/lib/m5208\libc.a(lib_a-mbtowc_r.o)
                0x0202d458                _mbtowc_r
 *fill*         0x0202d4ae        0x2 00
 .text          0x0202d4b0      0xc78 d:/nburn/gcc-m68k/bin/../lib/gcc/m68k-elf/4.2.1/../../../../m68k-elf/lib/m5208\libc.a(lib_a-mprec.o)
                0x0202d804                _mprec_log10
                0x0202d8ba                __any_on
                0x0202d960                _Balloc
                0x0202d772                __ratio
                0x0202de88                __i2b
                0x0202d682                __b2d
                0x0202e050                __s2b
                0x0202d5a0                __mcmp
                0x0202d4b0                __hi0bits
                0x0202df6e                __pow5mult
                0x0202dc6c                __lshift
                0x0202dd1a                __multiply
                0x0202da16                __d2b
                0x0202d876                __copybits
                0x0202d600                __ulp
                0x0202db2c                __mdiff
                0x0202d514                __lo0bits
                0x0202deaa                __multadd
                0x0202d926                _Bfree
 .text          0x0202e128      0x21c d:/nburn/gcc-m68k/bin/../lib/gcc/m68k-elf/4.2.1/../../../../m68k-elf/lib/m5208\libc.a(lib_a-refill.o)
                0x0202e14c                __srefill_r
 .text          0x0202e344       0xbc d:/nburn/gcc-m68k/bin/../lib/gcc/m68k-elf/4.2.1/../../../../m68k-elf/lib/m5208\libc.a(lib_a-sccl.o)
                0x0202e344                __sccl
 .text          0x0202e400        0xe d:/nburn/gcc-m68k/bin/../lib/gcc/m68k-elf/4.2.1/../../../../m68k-elf/lib/m5208\libc.a(lib_a-sf_nan.o)
                0x0202e400                nanf
 *fill*         0x0202e40e        0x2 00
 .text          0x0202e410       0x42 d:/nburn/gcc-m68k/bin/../lib/gcc/m68k-elf/4.2.1/../../../../m68k-elf/lib/m5208\libc.a(lib_a-s_isinfd.o)
                0x0202e410                __isinfd
 *fill*         0x0202e452        0x2 00
 .text          0x0202e454       0x34 d:/nburn/gcc-m68k/bin/../lib/gcc/m68k-elf/4.2.1/../../../../m68k-elf/lib/m5208\libc.a(lib_a-s_isnand.o)
                0x0202e454                __isnand
 .text          0x0202e488      0x162 d:/nburn/gcc-m68k/bin/../lib/gcc/m68k-elf/4.2.1/../../../../m68k-elf/lib/m5208\libc.a(lib_a-stdio.o)
                0x0202e4a6                __sseek
                0x0202e598                __sread
                0x0202e488                __sclose
                0x0202e508                __swrite
 *fill*         0x0202e5ea        0x2 00
 .text          0x0202e5ec     0x174a d:/nburn/gcc-m68k/bin/../lib/gcc/m68k-elf/4.2.1/../../../../m68k-elf/lib/m5208\libc.a(lib_a-strtod.o)
                0x0202e63e                _strtod_r
                0x0202fd1c                strtod
                0x0202fc36                strtof
 *fill*         0x0202fd36        0x2 00
 .text          0x0202fd38      0x254 d:/nburn/gcc-m68k/bin/../lib/gcc/m68k-elf/4.2.1/../../../../m68k-elf/lib/m5208\libc.a(lib_a-strtoll_r.o)
                0x0202fd38                _strtoll_r
 .text          0x0202ff8c      0x18a d:/nburn/gcc-m68k/bin/../lib/gcc/m68k-elf/4.2.1/../../../../m68k-elf/lib/m5208\libc.a(lib_a-strtol.o)
                0x020300f8                strtol
                0x0202ff8c                _strtol_r
 *fill*         0x02030116        0x2 00
 .text          0x02030118      0x2ba d:/nburn/gcc-m68k/bin/../lib/gcc/m68k-elf/4.2.1/../../../../m68k-elf/lib/m5208\libc.a(lib_a-strtoull_r.o)
                0x02030118                _strtoull_r
 *fill*         0x020303d2        0x2 00
 .text          0x020303d4      0x230 d:/nburn/gcc-m68k/bin/../lib/gcc/m68k-elf/4.2.1/../../../../m68k-elf/lib/m5208\libc.a(lib_a-ungetc.o)
                0x020305ea                ungetc
                0x020303d4                __submore
                0x02030492                _ungetc_r
 .text          0x02030604       0x3e d:/nburn/gcc-m68k/bin/../lib/gcc/m68k-elf/4.2.1/../../../../m68k-elf/lib/m5208\libc.a(lib_a-writer.o)
                0x02030604                _write_r
 *fill*         0x02030642        0x2 00
 .text          0x02030644       0x92 d:/nburn/gcc-m68k/bin/../lib/gcc/m68k-elf/4.2.1/../../../../m68k-elf/lib/m5208\libc.a(lib_a-callocr.o)
                0x02030644                _calloc_r
 *fill*         0x020306d6        0x2 00
 .text          0x020306d8       0x32 d:/nburn/gcc-m68k/bin/../lib/gcc/m68k-elf/4.2.1/../../../../m68k-elf/lib/m5208\libc.a(lib_a-closer.o)
                0x020306d8                _close_r
 *fill*         0x0203070a        0x2 00
 .text          0x0203070c       0xfe d:/nburn/gcc-m68k/bin/../lib/gcc/m68k-elf/4.2.1/../../../../m68k-elf/lib/m5208\libc.a(lib_a-fclose.o)
                0x0203070c                _fclose_r
                0x020307f4                fclose
 *fill*         0x0203080a        0x2 00
 .text          0x0203080c       0x36 d:/nburn/gcc-m68k/bin/../lib/gcc/m68k-elf/4.2.1/../../../../m68k-elf/lib/m5208\libc.a(lib_a-fstatr.o)
                0x0203080c                _fstat_r
 *fill*         0x02030842        0x2 00
 .text          0x02030844      0x800 d:/nburn/gcc-m68k/bin/../lib/gcc/m68k-elf/4.2.1/../../../../m68k-elf/lib/m5208\libc.a(lib_a-gdtoa-gethex.o)
                0x02030876                __hexdig_init
                0x0203093c                __gethex
 .text          0x02031044      0x1d2 d:/nburn/gcc-m68k/bin/../lib/gcc/m68k-elf/4.2.1/../../../../m68k-elf/lib/m5208\libc.a(lib_a-gdtoa-hexnan.o)
                0x02031082                __hexnan
 *fill*         0x02031216        0x2 00
 .text          0x02031218       0x3e d:/nburn/gcc-m68k/bin/../lib/gcc/m68k-elf/4.2.1/../../../../m68k-elf/lib/m5208\libc.a(lib_a-lseekr.o)
                0x02031218                _lseek_r
 *fill*         0x02031256        0x2 00
 .text          0x02031258       0x3e d:/nburn/gcc-m68k/bin/../lib/gcc/m68k-elf/4.2.1/../../../../m68k-elf/lib/m5208\libc.a(lib_a-readr.o)
                0x02031258                _read_r
 *fill*         0x02031296        0x2 00
 .text          0x02031298       0x22 d:/nburn/gcc-m68k/bin/../lib/gcc/m68k-elf/4.2.1/m5208\libgcc.a(_eqdf2.o)
                0x02031298                __eqdf2
 *fill*         0x020312ba        0x2 00
 .text          0x020312bc       0x22 d:/nburn/gcc-m68k/bin/../lib/gcc/m68k-elf/4.2.1/m5208\libgcc.a(_nedf2.o)
                0x020312bc                __nedf2
 *fill*         0x020312de        0x2 00
 .text          0x020312e0       0x22 d:/nburn/gcc-m68k/bin/../lib/gcc/m68k-elf/4.2.1/m5208\libgcc.a(_gtdf2.o)
                0x020312e0                __gtdf2
 *fill*         0x02031302        0x2 00
 .text          0x02031304       0x22 d:/nburn/gcc-m68k/bin/../lib/gcc/m68k-elf/4.2.1/m5208\libgcc.a(_ledf2.o)
                0x02031304                __ledf2
 *fill*         0x02031326        0x2 00
 .text          0x02031328       0x1a d:/nburn/gcc-m68k/bin/../lib/gcc/m68k-elf/4.2.1/m5208\libgcc.a(_nesf2.o)
                0x02031328                __nesf2
 *fill*         0x02031342        0x2 00
 .text          0x02031344       0x1a d:/nburn/gcc-m68k/bin/../lib/gcc/m68k-elf/4.2.1/m5208\libgcc.a(_gtsf2.o)
                0x02031344                __gtsf2
 *fill*         0x0203135e        0x2 00
 .text          0x02031360       0x1a d:/nburn/gcc-m68k/bin/../lib/gcc/m68k-elf/4.2.1/m5208\libgcc.a(_ltsf2.o)
                0x02031360                __ltsf2
 *fill*         0x0203137a        0x2 00
 .text          0x0203137c      0x3d4 d:/nburn/gcc-m68k/bin/../lib/gcc/m68k-elf/4.2.1/m5208\libgcc.a(_udivdi3.o)
                0x0203137c                __udivdi3
 .text          0x02031750      0x3ee d:/nburn/gcc-m68k/bin/../lib/gcc/m68k-elf/4.2.1/m5208\libgcc.a(_umoddi3.o)
                0x02031750                __umoddi3
 *fill*         0x02031b3e        0x2 00
 .text          0x02031b40      0x7ca d:/nburn/gcc-m68k/bin/../lib/gcc/m68k-elf/4.2.1/m5208\libgcc.a(_float.o)
                0x02031fb2                __divsf3
                0x02031b88                __subsf3
                0x020321a6                __negsf2
                0x02032298                __cmpsf2
                0x020321f8                __cmpsf2_internal
                0x02031e70                __mulsf3
                0x02031b8e                __addsf3
 *fill*         0x0203230a        0x2 00
 .text          0x0203230c       0x32 d:/nburn/gcc-m68k/bin/../lib/gcc/m68k-elf/4.2.1/m5208/crtend.o
                0x02032340                . = ALIGN (0x10)
 *fill*         0x0203233e        0x2 00
 *(.text.*)
 .text._ZNKSs7_M_dataEv
                0x02032340        0xe d:/nburn/gcc-m68k/bin/../lib/gcc/m68k-elf/4.2.1/../../../../m68k-elf/lib/m5208\libstdc++.a(string-inst.o)
                0x02032340                std::string::_M_data() const
 .text._ZNSs7_M_dataEPc
                0x0203234e       0x14 d:/nburn/gcc-m68k/bin/../lib/gcc/m68k-elf/4.2.1/../../../../m68k-elf/lib/m5208\libstdc++.a(string-inst.o)
                0x0203234e                std::string::_M_data(char*)
 .text._ZNKSs6_M_repEv
                0x02032362       0x14 d:/nburn/gcc-m68k/bin/../lib/gcc/m68k-elf/4.2.1/../../../../m68k-elf/lib/m5208\libstdc++.a(string-inst.o)
                0x02032362                std::string::_M_rep() const
 .text._ZNKSs9_M_ibeginEv
                0x02032376        0xe d:/nburn/gcc-m68k/bin/../lib/gcc/m68k-elf/4.2.1/../../../../m68k-elf/lib/m5208\libstdc++.a(string-inst.o)
                0x02032376                std::string::_M_ibegin() const
 .text._ZNKSs7_M_iendEv
                0x02032384       0x14 d:/nburn/gcc-m68k/bin/../lib/gcc/m68k-elf/4.2.1/../../../../m68k-elf/lib/m5208\libstdc++.a(string-inst.o)
                0x02032384                std::string::_M_iend() const
 .text._ZNKSs8_M_limitEmm
                0x02032398       0x20 d:/nburn/gcc-m68k/bin/../lib/gcc/m68k-elf/4.2.1/../../../../m68k-elf/lib/m5208\libstdc++.a(string-inst.o)
                0x02032398                std::string::_M_limit(unsigned long, unsigned long) const
 .text._ZNKSs11_M_disjunctEPKc
                0x020323b8       0x28 d:/nburn/gcc-m68k/bin/../lib/gcc/m68k-elf/4.2.1/../../../../m68k-elf/lib/m5208\libstdc++.a(string-inst.o)
                0x020323b8                std::string::_M_disjunct(char const*) const
 .text._ZNSs12_S_empty_repEv
                0x020323e0        0xe d:/nburn/gcc-m68k/bin/../lib/gcc/m68k-elf/4.2.1/../../../../m68k-elf/lib/m5208\libstdc++.a(string-inst.o)
                0x020323e0                std::string::_S_empty_rep()
 .text._ZNSsC1Ev
                0x020323ee       0x12 d:/nburn/gcc-m68k/bin/../lib/gcc/m68k-elf/4.2.1/../../../../m68k-elf/lib/m5208\libstdc++.a(string-inst.o)
                0x020323ee                std::basic_string<char, std::char_traits<char>, std::allocator<char> >::basic_string()
 .text._ZNKSs5beginEv
                0x02032400        0xe d:/nburn/gcc-m68k/bin/../lib/gcc/m68k-elf/4.2.1/../../../../m68k-elf/lib/m5208\libstdc++.a(string-inst.o)
                0x02032400                std::string::begin() const
 .text._ZNKSs3endEv
                0x0203240e       0x14 d:/nburn/gcc-m68k/bin/../lib/gcc/m68k-elf/4.2.1/../../../../m68k-elf/lib/m5208\libstdc++.a(string-inst.o)
                0x0203240e                std::string::end() const
 .text._ZNKSs4sizeEv
                0x02032422       0x12 d:/nburn/gcc-m68k/bin/../lib/gcc/m68k-elf/4.2.1/../../../../m68k-elf/lib/m5208\libstdc++.a(string-inst.o)
                0x02032422                std::string::size() const
 .text._ZNKSs8max_sizeEv
                0x02032434        0xe d:/nburn/gcc-m68k/bin/../lib/gcc/m68k-elf/4.2.1/../../../../m68k-elf/lib/m5208\libstdc++.a(string-inst.o)
                0x02032434                std::string::max_size() const
 .text._ZNKSs8capacityEv
                0x02032442       0x12 d:/nburn/gcc-m68k/bin/../lib/gcc/m68k-elf/4.2.1/../../../../m68k-elf/lib/m5208\libstdc++.a(string-inst.o)
                0x02032442                std::string::capacity() const
 .text._ZNKSs4dataEv
                0x02032454        0xe d:/nburn/gcc-m68k/bin/../lib/gcc/m68k-elf/4.2.1/../../../../m68k-elf/lib/m5208\libstdc++.a(string-inst.o)
                0x02032454                std::string::data() const
 .text._ZNKSs13get_allocatorEv
                0x02032462        0xa d:/nburn/gcc-m68k/bin/../lib/gcc/m68k-elf/4.2.1/../../../../m68k-elf/lib/m5208\libstdc++.a(string-inst.o)
                0x02032462                std::string::get_allocator() const
 .text._ZNSs12_Alloc_hiderC1EPcRKSaIcE
                0x0203246c       0x10 d:/nburn/gcc-m68k/bin/../lib/gcc/m68k-elf/4.2.1/../../../../m68k-elf/lib/m5208\libstdc++.a(string-inst.o)
                0x0203246c                std::string::_Alloc_hider::_Alloc_hider(char*, std::allocator<char> const&)
 .text._ZNSs4_Rep12_S_empty_repEv
                0x0203247c        0xe d:/nburn/gcc-m68k/bin/../lib/gcc/m68k-elf/4.2.1/../../../../m68k-elf/lib/m5208\libstdc++.a(string-inst.o)
                0x0203247c                std::string::_Rep::_S_empty_rep()
 .text._ZNKSs4_Rep12_M_is_leakedEv
                0x0203248a       0x16 d:/nburn/gcc-m68k/bin/../lib/gcc/m68k-elf/4.2.1/../../../../m68k-elf/lib/m5208\libstdc++.a(string-inst.o)
                0x0203248a                std::string::_Rep::_M_is_leaked() const
 .text._ZNKSs4_Rep12_M_is_sharedEv
                0x020324a0       0x16 d:/nburn/gcc-m68k/bin/../lib/gcc/m68k-elf/4.2.1/../../../../m68k-elf/lib/m5208\libstdc++.a(string-inst.o)
                0x020324a0                std::string::_Rep::_M_is_shared() const
 .text._ZNSs4_Rep13_M_set_leakedEv
                0x020324b6       0x12 d:/nburn/gcc-m68k/bin/../lib/gcc/m68k-elf/4.2.1/../../../../m68k-elf/lib/m5208\libstdc++.a(string-inst.o)
                0x020324b6                std::string::_Rep::_M_set_leaked()
 .text._ZNSs4_Rep15_M_set_sharableEv
                0x020324c8       0x10 d:/nburn/gcc-m68k/bin/../lib/gcc/m68k-elf/4.2.1/../../../../m68k-elf/lib/m5208\libstdc++.a(string-inst.o)
                0x020324c8                std::string::_Rep::_M_set_sharable()
 .text._ZNSs4_Rep26_M_set_length_and_sharableEm
                0x020324d8       0x1c d:/nburn/gcc-m68k/bin/../lib/gcc/m68k-elf/4.2.1/../../../../m68k-elf/lib/m5208\libstdc++.a(string-inst.o)
                0x020324d8                std::string::_Rep::_M_set_length_and_sharable(unsigned long)
 .text._ZNSs4_Rep10_M_refdataEv
                0x020324f4       0x12 d:/nburn/gcc-m68k/bin/../lib/gcc/m68k-elf/4.2.1/../../../../m68k-elf/lib/m5208\libstdc++.a(string-inst.o)
                0x020324f4                std::string::_Rep::_M_refdata()
 .text._ZN9__gnu_cxxeqIPcSsEEbRKNS_17__normal_iteratorIT_T0_EES7_
                0x02032506       0x1a d:/nburn/gcc-m68k/bin/../lib/gcc/m68k-elf/4.2.1/../../../../m68k-elf/lib/m5208\libstdc++.a(string-inst.o)
                0x02032506                bool __gnu_cxx::operator==<char*, std::string>(__gnu_cxx::__normal_iterator<char*, std::string> const&, __gnu_cxx::__normal_iterator<char*, std::string> const&)
 .text._ZNSs12_Alloc_hiderC2EPcRKSaIcE
                0x02032520       0x10 d:/nburn/gcc-m68k/bin/../lib/gcc/m68k-elf/4.2.1/../../../../m68k-elf/lib/m5208\libstdc++.a(string-inst.o)
                0x02032520                std::string::_Alloc_hider::_Alloc_hider(char*, std::allocator<char> const&)
 .text._ZNSs4_Rep10_M_refcopyEv
                0x02032530       0x2c d:/nburn/gcc-m68k/bin/../lib/gcc/m68k-elf/4.2.1/../../../../m68k-elf/lib/m5208\libstdc++.a(string-inst.o)
                0x02032530                std::string::_Rep::_M_refcopy()
 .text._ZNKSs15_M_check_lengthEmmPKc
                0x0203255c       0x2e d:/nburn/gcc-m68k/bin/../lib/gcc/m68k-elf/4.2.1/../../../../m68k-elf/lib/m5208\libstdc++.a(string-inst.o)
                0x0203255c                std::string::_M_check_length(unsigned long, unsigned long, char const*) const
 .text._ZNKSs8_M_checkEmPKc
                0x0203258a       0x22 d:/nburn/gcc-m68k/bin/../lib/gcc/m68k-elf/4.2.1/../../../../m68k-elf/lib/m5208\libstdc++.a(string-inst.o)
                0x0203258a                std::string::_M_check(unsigned long, char const*) const
 .text._ZNSs9_M_assignEPcmc
                0x020325ac       0x3c d:/nburn/gcc-m68k/bin/../lib/gcc/m68k-elf/4.2.1/../../../../m68k-elf/lib/m5208\libstdc++.a(string-inst.o)
                0x020325ac                std::string::_M_assign(char*, unsigned long, char)
 .text._ZNSs7_M_moveEPcPKcm
                0x020325e8       0x22 d:/nburn/gcc-m68k/bin/../lib/gcc/m68k-elf/4.2.1/../../../../m68k-elf/lib/m5208\libstdc++.a(string-inst.o)
                0x020325e8                std::string::_M_move(char*, char const*, unsigned long)
 .text._ZNSs7_M_copyEPcPKcm
                0x0203260a       0x22 d:/nburn/gcc-m68k/bin/../lib/gcc/m68k-elf/4.2.1/../../../../m68k-elf/lib/m5208\libstdc++.a(string-inst.o)
                0x0203260a                std::string::_M_copy(char*, char const*, unsigned long)
 .text._ZNKSs5c_strEv
                0x0203262c        0xe d:/nburn/gcc-m68k/bin/../lib/gcc/m68k-elf/4.2.1/../../../../m68k-elf/lib/m5208\libstdc++.a(string-inst.o)
                0x0203262c                std::string::c_str() const
 .text._ZNKSsixEm
                0x0203263a       0x12 d:/nburn/gcc-m68k/bin/../lib/gcc/m68k-elf/4.2.1/../../../../m68k-elf/lib/m5208\libstdc++.a(string-inst.o)
                0x0203263a                std::string::operator[](unsigned long) const
 .text._ZNKSs4findEcm
                0x0203264c       0x4c d:/nburn/gcc-m68k/bin/../lib/gcc/m68k-elf/4.2.1/../../../../m68k-elf/lib/m5208\libstdc++.a(string-inst.o)
                0x0203264c                std::string::find(char, unsigned long) const
 .text._ZNKSs13find_first_ofEcm
                0x02032698       0x16 d:/nburn/gcc-m68k/bin/../lib/gcc/m68k-elf/4.2.1/../../../../m68k-elf/lib/m5208\libstdc++.a(string-inst.o)
                0x02032698                std::string::find_first_of(char, unsigned long) const
 .text._ZNKSs2atEm
                0x020326ae       0x26 d:/nburn/gcc-m68k/bin/../lib/gcc/m68k-elf/4.2.1/../../../../m68k-elf/lib/m5208\libstdc++.a(string-inst.o)
                0x020326ae                std::string::at(unsigned long) const
 .text._ZNKSs5emptyEv
                0x020326d4       0x18 d:/nburn/gcc-m68k/bin/../lib/gcc/m68k-elf/4.2.1/../../../../m68k-elf/lib/m5208\libstdc++.a(string-inst.o)
                0x020326d4                std::string::empty() const
 .text._ZNKSs6lengthEv
                0x020326ec       0x12 d:/nburn/gcc-m68k/bin/../lib/gcc/m68k-elf/4.2.1/../../../../m68k-elf/lib/m5208\libstdc++.a(string-inst.o)
                0x020326ec                std::string::length() const
 .text._ZNSsC2Ev
                0x020326fe       0x12 d:/nburn/gcc-m68k/bin/../lib/gcc/m68k-elf/4.2.1/../../../../m68k-elf/lib/m5208\libstdc++.a(string-inst.o)
                0x020326fe                std::basic_string<char, std::char_traits<char>, std::allocator<char> >::basic_string()
 .text._ZN9__gnu_cxxeqIPKcSsEEbRKNS_17__normal_iteratorIT_T0_EES8_
                0x02032710       0x1a d:/nburn/gcc-m68k/bin/../lib/gcc/m68k-elf/4.2.1/../../../../m68k-elf/lib/m5208\libstdc++.a(string-inst.o)
                0x02032710                bool __gnu_cxx::operator==<char const*, std::string>(__gnu_cxx::__normal_iterator<char const*, std::string> const&, __gnu_cxx::__normal_iterator<char const*, std::string> const&)
 .text._ZNKSs16find_last_not_ofEcm
                0x0203272a       0x5a d:/nburn/gcc-m68k/bin/../lib/gcc/m68k-elf/4.2.1/../../../../m68k-elf/lib/m5208\libstdc++.a(string-inst.o)
                0x0203272a                std::string::find_last_not_of(char, unsigned long) const
 .text._ZNKSs17find_first_not_ofEcm
                0x02032784       0x52 d:/nburn/gcc-m68k/bin/../lib/gcc/m68k-elf/4.2.1/../../../../m68k-elf/lib/m5208\libstdc++.a(string-inst.o)
                0x02032784                std::string::find_first_not_of(char, unsigned long) const
 .text._ZNKSs5rfindEcm
                0x020327d6       0x6a d:/nburn/gcc-m68k/bin/../lib/gcc/m68k-elf/4.2.1/../../../../m68k-elf/lib/m5208\libstdc++.a(string-inst.o)
                0x020327d6                std::string::rfind(char, unsigned long) const
 .text._ZNKSs12find_last_ofEcm
                0x02032840       0x16 d:/nburn/gcc-m68k/bin/../lib/gcc/m68k-elf/4.2.1/../../../../m68k-elf/lib/m5208\libstdc++.a(string-inst.o)
                0x02032840                std::string::find_last_of(char, unsigned long) const
 .text._ZNSs4_Rep9_S_createEmmRKSaIcE
                0x02032856       0xa4 d:/nburn/gcc-m68k/bin/../lib/gcc/m68k-elf/4.2.1/../../../../m68k-elf/lib/m5208\libstdc++.a(string-inst.o)
                0x02032856                std::string::_Rep::_S_create(unsigned long, unsigned long, std::allocator<char> const&)
 .text._ZNSs4_Rep10_M_destroyERKSaIcE
                0x020328fa        0xc d:/nburn/gcc-m68k/bin/../lib/gcc/m68k-elf/4.2.1/../../../../m68k-elf/lib/m5208\libstdc++.a(string-inst.o)
                0x020328fa                std::string::_Rep::_M_destroy(std::allocator<char> const&)
 .text._ZNSs4_Rep10_M_disposeERKSaIcE
                0x02032906       0x2c d:/nburn/gcc-m68k/bin/../lib/gcc/m68k-elf/4.2.1/../../../../m68k-elf/lib/m5208\libstdc++.a(string-inst.o)
                0x02032906                std::string::_Rep::_M_dispose(std::allocator<char> const&)
 .text._ZNKSs16find_last_not_ofEPKcmm
                0x02032932       0x84 d:/nburn/gcc-m68k/bin/../lib/gcc/m68k-elf/4.2.1/../../../../m68k-elf/lib/m5208\libstdc++.a(string-inst.o)
                0x02032932                std::string::find_last_not_of(char const*, unsigned long, unsigned long) const
 .text._ZNKSs16find_last_not_ofERKSsm
                0x020329b6       0x22 d:/nburn/gcc-m68k/bin/../lib/gcc/m68k-elf/4.2.1/../../../../m68k-elf/lib/m5208\libstdc++.a(string-inst.o)
                0x020329b6                std::string::find_last_not_of(std::string const&, unsigned long) const
 .text._ZNKSs17find_first_not_ofEPKcmm
                0x020329d8       0x58 d:/nburn/gcc-m68k/bin/../lib/gcc/m68k-elf/4.2.1/../../../../m68k-elf/lib/m5208\libstdc++.a(string-inst.o)
                0x020329d8                std::string::find_first_not_of(char const*, unsigned long, unsigned long) const
 .text._ZNKSs17find_first_not_ofERKSsm
                0x02032a30       0x22 d:/nburn/gcc-m68k/bin/../lib/gcc/m68k-elf/4.2.1/../../../../m68k-elf/lib/m5208\libstdc++.a(string-inst.o)
                0x02032a30                std::string::find_first_not_of(std::string const&, unsigned long) const
 .text._ZNKSs12find_last_ofEPKcmm
                0x02032a52       0x88 d:/nburn/gcc-m68k/bin/../lib/gcc/m68k-elf/4.2.1/../../../../m68k-elf/lib/m5208\libstdc++.a(string-inst.o)
                0x02032a52                std::string::find_last_of(char const*, unsigned long, unsigned long) const
 .text._ZNKSs12find_last_ofERKSsm
                0x02032ada       0x22 d:/nburn/gcc-m68k/bin/../lib/gcc/m68k-elf/4.2.1/../../../../m68k-elf/lib/m5208\libstdc++.a(string-inst.o)
                0x02032ada                std::string::find_last_of(std::string const&, unsigned long) const
 .text._ZNKSs13find_first_ofEPKcmm
                0x02032afc       0x5a d:/nburn/gcc-m68k/bin/../lib/gcc/m68k-elf/4.2.1/../../../../m68k-elf/lib/m5208\libstdc++.a(string-inst.o)
                0x02032afc                std::string::find_first_of(char const*, unsigned long, unsigned long) const
 .text._ZNKSs13find_first_ofERKSsm
                0x02032b56       0x22 d:/nburn/gcc-m68k/bin/../lib/gcc/m68k-elf/4.2.1/../../../../m68k-elf/lib/m5208\libstdc++.a(string-inst.o)
                0x02032b56                std::string::find_first_of(std::string const&, unsigned long) const
 .text._ZNKSs7compareERKSs
                0x02032b78       0x56 d:/nburn/gcc-m68k/bin/../lib/gcc/m68k-elf/4.2.1/../../../../m68k-elf/lib/m5208\libstdc++.a(string-inst.o)
                0x02032b78                std::string::compare(std::string const&) const
 .text._ZNKSs5rfindEPKcmm
                0x02032bce       0x9e d:/nburn/gcc-m68k/bin/../lib/gcc/m68k-elf/4.2.1/../../../../m68k-elf/lib/m5208\libstdc++.a(string-inst.o)
                0x02032bce                std::string::rfind(char const*, unsigned long, unsigned long) const
 .text._ZNKSs5rfindERKSsm
                0x02032c6c       0x22 d:/nburn/gcc-m68k/bin/../lib/gcc/m68k-elf/4.2.1/../../../../m68k-elf/lib/m5208\libstdc++.a(string-inst.o)
                0x02032c6c                std::string::rfind(std::string const&, unsigned long) const
 .text._ZNKSs4findEPKcmm
                0x02032c8e       0x90 d:/nburn/gcc-m68k/bin/../lib/gcc/m68k-elf/4.2.1/../../../../m68k-elf/lib/m5208\libstdc++.a(string-inst.o)
                0x02032c8e                std::string::find(char const*, unsigned long, unsigned long) const
 .text._ZNKSs4findERKSsm
                0x02032d1e       0x22 d:/nburn/gcc-m68k/bin/../lib/gcc/m68k-elf/4.2.1/../../../../m68k-elf/lib/m5208\libstdc++.a(string-inst.o)
                0x02032d1e                std::string::find(std::string const&, unsigned long) const
 .text._ZNKSs7compareEPKc
                0x02032d40       0x5c d:/nburn/gcc-m68k/bin/../lib/gcc/m68k-elf/4.2.1/../../../../m68k-elf/lib/m5208\libstdc++.a(string-inst.o)
                0x02032d40                std::string::compare(char const*) const
 .text._ZNKSs16find_last_not_ofEPKcm
                0x02032d9c       0x2c d:/nburn/gcc-m68k/bin/../lib/gcc/m68k-elf/4.2.1/../../../../m68k-elf/lib/m5208\libstdc++.a(string-inst.o)
                0x02032d9c                std::string::find_last_not_of(char const*, unsigned long) const
 .text._ZNKSs17find_first_not_ofEPKcm
                0x02032dc8       0x2c d:/nburn/gcc-m68k/bin/../lib/gcc/m68k-elf/4.2.1/../../../../m68k-elf/lib/m5208\libstdc++.a(string-inst.o)
                0x02032dc8                std::string::find_first_not_of(char const*, unsigned long) const
 .text._ZNKSs12find_last_ofEPKcm
                0x02032df4       0x2c d:/nburn/gcc-m68k/bin/../lib/gcc/m68k-elf/4.2.1/../../../../m68k-elf/lib/m5208\libstdc++.a(string-inst.o)
                0x02032df4                std::string::find_last_of(char const*, unsigned long) const
 .text._ZNKSs13find_first_ofEPKcm
                0x02032e20       0x2c d:/nburn/gcc-m68k/bin/../lib/gcc/m68k-elf/4.2.1/../../../../m68k-elf/lib/m5208\libstdc++.a(string-inst.o)
                0x02032e20                std::string::find_first_of(char const*, unsigned long) const
 .text._ZNKSs5rfindEPKcm
                0x02032e4c       0x2c d:/nburn/gcc-m68k/bin/../lib/gcc/m68k-elf/4.2.1/../../../../m68k-elf/lib/m5208\libstdc++.a(string-inst.o)
                0x02032e4c                std::string::rfind(char const*, unsigned long) const
 .text._ZNKSs4findEPKcm
                0x02032e78       0x2c d:/nburn/gcc-m68k/bin/../lib/gcc/m68k-elf/4.2.1/../../../../m68k-elf/lib/m5208\libstdc++.a(string-inst.o)
                0x02032e78                std::string::find(char const*, unsigned long) const
 .text._ZNKSs4rendEv
                0x02032ea4       0x10 d:/nburn/gcc-m68k/bin/../lib/gcc/m68k-elf/4.2.1/../../../../m68k-elf/lib/m5208\libstdc++.a(string-inst.o)
                0x02032ea4                std::string::rend() const
 .text._ZNKSs6rbeginEv
                0x02032eb4       0x1a d:/nburn/gcc-m68k/bin/../lib/gcc/m68k-elf/4.2.1/../../../../m68k-elf/lib/m5208\libstdc++.a(string-inst.o)
                0x02032eb4                std::string::rbegin() const
 .text._ZNSs12_S_constructEmcRKSaIcE
                0x02032ece       0x84 d:/nburn/gcc-m68k/bin/../lib/gcc/m68k-elf/4.2.1/../../../../m68k-elf/lib/m5208\libstdc++.a(string-inst.o)
                0x02032ece                std::string::_S_construct(unsigned long, char, std::allocator<char> const&)
 .text._ZNSsC1EmcRKSaIcE
                0x02032f52       0x2a d:/nburn/gcc-m68k/bin/../lib/gcc/m68k-elf/4.2.1/../../../../m68k-elf/lib/m5208\libstdc++.a(string-inst.o)
                0x02032f52                std::basic_string<char, std::char_traits<char>, std::allocator<char> >::basic_string(unsigned long, char, std::allocator<char> const&)
 .text._ZNSsC2EmcRKSaIcE
                0x02032f7c       0x2a d:/nburn/gcc-m68k/bin/../lib/gcc/m68k-elf/4.2.1/../../../../m68k-elf/lib/m5208\libstdc++.a(string-inst.o)
                0x02032f7c                std::basic_string<char, std::char_traits<char>, std::allocator<char> >::basic_string(unsigned long, char, std::allocator<char> const&)
 .text._ZNSsC1ERKSaIcE
                0x02032fa6       0x22 d:/nburn/gcc-m68k/bin/../lib/gcc/m68k-elf/4.2.1/../../../../m68k-elf/lib/m5208\libstdc++.a(string-inst.o)
                0x02032fa6                std::basic_string<char, std::char_traits<char>, std::allocator<char> >::basic_string(std::allocator<char> const&)
 .text._ZNSsC2ERKSaIcE
                0x02032fc8       0x22 d:/nburn/gcc-m68k/bin/../lib/gcc/m68k-elf/4.2.1/../../../../m68k-elf/lib/m5208\libstdc++.a(string-inst.o)
                0x02032fc8                std::basic_string<char, std::char_traits<char>, std::allocator<char> >::basic_string(std::allocator<char> const&)
 .text._ZNKSs7compareEmmPKcm
                0x02032fea       0x80 d:/nburn/gcc-m68k/bin/../lib/gcc/m68k-elf/4.2.1/../../../../m68k-elf/lib/m5208\libstdc++.a(string-inst.o)
                0x02032fea                std::string::compare(unsigned long, unsigned long, char const*, unsigned long) const
 .text._ZNKSs7compareEmmPKc
                0x0203306a       0x9a d:/nburn/gcc-m68k/bin/../lib/gcc/m68k-elf/4.2.1/../../../../m68k-elf/lib/m5208\libstdc++.a(string-inst.o)
                0x0203306a                std::string::compare(unsigned long, unsigned long, char const*) const
 .text._ZNKSs7compareEmmRKSsmm
                0x02033104       0xb0 d:/nburn/gcc-m68k/bin/../lib/gcc/m68k-elf/4.2.1/../../../../m68k-elf/lib/m5208\libstdc++.a(string-inst.o)
                0x02033104                std::string::compare(unsigned long, unsigned long, std::string const&, unsigned long, unsigned long) const
 .text._ZNKSs7compareEmmRKSs
                0x020331b4       0x92 d:/nburn/gcc-m68k/bin/../lib/gcc/m68k-elf/4.2.1/../../../../m68k-elf/lib/m5208\libstdc++.a(string-inst.o)
                0x020331b4                std::string::compare(unsigned long, unsigned long, std::string const&) const
 .text._ZNSsD1Ev
                0x02033246       0x3e d:/nburn/gcc-m68k/bin/../lib/gcc/m68k-elf/4.2.1/../../../../m68k-elf/lib/m5208\libstdc++.a(string-inst.o)
                0x02033246                std::basic_string<char, std::char_traits<char>, std::allocator<char> >::~basic_string()
 .text._ZNSsD2Ev
                0x02033284       0x3e d:/nburn/gcc-m68k/bin/../lib/gcc/m68k-elf/4.2.1/../../../../m68k-elf/lib/m5208\libstdc++.a(string-inst.o)
                0x02033284                std::basic_string<char, std::char_traits<char>, std::allocator<char> >::~basic_string()
 .text._ZNSs13_S_copy_charsEPcS_S_
                0x020332c2       0x2a d:/nburn/gcc-m68k/bin/../lib/gcc/m68k-elf/4.2.1/../../../../m68k-elf/lib/m5208\libstdc++.a(string-inst.o)
                0x020332c2                std::string::_S_copy_chars(char*, char*, char*)
 .text._ZNSs4_Rep8_M_cloneERKSaIcEm
                0x020332ec       0xa0 d:/nburn/gcc-m68k/bin/../lib/gcc/m68k-elf/4.2.1/../../../../m68k-elf/lib/m5208\libstdc++.a(string-inst.o)
                0x020332ec                std::string::_Rep::_M_clone(std::allocator<char> const&, unsigned long)
 .text._ZNSs4_Rep7_M_grabERKSaIcES2_
                0x0203338c       0x40 d:/nburn/gcc-m68k/bin/../lib/gcc/m68k-elf/4.2.1/../../../../m68k-elf/lib/m5208\libstdc++.a(string-inst.o)
                0x0203338c                std::string::_Rep::_M_grab(std::allocator<char> const&, std::allocator<char> const&)
 .text._ZNSs7reserveEm
                0x020333cc       0x92 d:/nburn/gcc-m68k/bin/../lib/gcc/m68k-elf/4.2.1/../../../../m68k-elf/lib/m5208\libstdc++.a(string-inst.o)
                0x020333cc                std::string::reserve(unsigned long)
 .text._ZNSs9push_backEc
                0x0203345e       0x5c d:/nburn/gcc-m68k/bin/../lib/gcc/m68k-elf/4.2.1/../../../../m68k-elf/lib/m5208\libstdc++.a(string-inst.o)
                0x0203345e                std::string::push_back(char)
 .text._ZNSs6appendEmc
                0x020334ba       0xbc d:/nburn/gcc-m68k/bin/../lib/gcc/m68k-elf/4.2.1/../../../../m68k-elf/lib/m5208\libstdc++.a(string-inst.o)
                0x020334ba                std::string::append(unsigned long, char)
 .text._ZNSspLEc
                0x02033576       0x5e d:/nburn/gcc-m68k/bin/../lib/gcc/m68k-elf/4.2.1/../../../../m68k-elf/lib/m5208\libstdc++.a(string-inst.o)
                0x02033576                std::string::operator+=(char)
 .text._ZNSs6appendEPKcm
                0x020335d4       0xde d:/nburn/gcc-m68k/bin/../lib/gcc/m68k-elf/4.2.1/../../../../m68k-elf/lib/m5208\libstdc++.a(string-inst.o)
                0x020335d4                std::string::append(char const*, unsigned long)
 .text._ZNSs6appendEPKc
                0x020336b2       0x28 d:/nburn/gcc-m68k/bin/../lib/gcc/m68k-elf/4.2.1/../../../../m68k-elf/lib/m5208\libstdc++.a(string-inst.o)
                0x020336b2                std::string::append(char const*)
 .text._ZNSspLEPKc
                0x020336da       0x28 d:/nburn/gcc-m68k/bin/../lib/gcc/m68k-elf/4.2.1/../../../../m68k-elf/lib/m5208\libstdc++.a(string-inst.o)
                0x020336da                std::string::operator+=(char const*)
 .text._ZNSs6appendERKSsmm
                0x02033702       0xce d:/nburn/gcc-m68k/bin/../lib/gcc/m68k-elf/4.2.1/../../../../m68k-elf/lib/m5208\libstdc++.a(string-inst.o)
                0x02033702                std::string::append(std::string const&, unsigned long, unsigned long)
 .text._ZNSs6appendERKSs
                0x020337d0       0xa2 d:/nburn/gcc-m68k/bin/../lib/gcc/m68k-elf/4.2.1/../../../../m68k-elf/lib/m5208\libstdc++.a(string-inst.o)
                0x020337d0                std::string::append(std::string const&)
 .text._ZNSspLERKSs
                0x02033872        0xc d:/nburn/gcc-m68k/bin/../lib/gcc/m68k-elf/4.2.1/../../../../m68k-elf/lib/m5208\libstdc++.a(string-inst.o)
                0x02033872                std::string::operator+=(std::string const&)
 .text._ZNSs9_M_mutateEmmm
                0x0203387e      0x198 d:/nburn/gcc-m68k/bin/../lib/gcc/m68k-elf/4.2.1/../../../../m68k-elf/lib/m5208\libstdc++.a(string-inst.o)
                0x0203387e                std::string::_M_mutate(unsigned long, unsigned long, unsigned long)
 .text._ZNSs14_M_replace_auxEmmmc
                0x02033a16       0x8e d:/nburn/gcc-m68k/bin/../lib/gcc/m68k-elf/4.2.1/../../../../m68k-elf/lib/m5208\libstdc++.a(string-inst.o)
                0x02033a16                std::string::_M_replace_aux(unsigned long, unsigned long, unsigned long, char)
 .text._ZNSs7replaceEN9__gnu_cxx17__normal_iteratorIPcSsEES2_mc
                0x02033aa4       0x28 d:/nburn/gcc-m68k/bin/../lib/gcc/m68k-elf/4.2.1/../../../../m68k-elf/lib/m5208\libstdc++.a(string-inst.o)
                0x02033aa4                std::string::replace(__gnu_cxx::__normal_iterator<char*, std::string>, __gnu_cxx::__normal_iterator<char*, std::string>, unsigned long, char)
 .text._ZNSs7replaceEmmmc
                0x02033acc       0x52 d:/nburn/gcc-m68k/bin/../lib/gcc/m68k-elf/4.2.1/../../../../m68k-elf/lib/m5208\libstdc++.a(string-inst.o)
                0x02033acc                std::string::replace(unsigned long, unsigned long, unsigned long, char)
 .text._ZNSs6insertEN9__gnu_cxx17__normal_iteratorIPcSsEEc
                0x02033b1e       0x42 d:/nburn/gcc-m68k/bin/../lib/gcc/m68k-elf/4.2.1/../../../../m68k-elf/lib/m5208\libstdc++.a(string-inst.o)
                0x02033b1e                std::string::insert(__gnu_cxx::__normal_iterator<char*, std::string>, char)
 .text._ZNSs6insertEmmc
                0x02033b60       0x3c d:/nburn/gcc-m68k/bin/../lib/gcc/m68k-elf/4.2.1/../../../../m68k-elf/lib/m5208\libstdc++.a(string-inst.o)
                0x02033b60                std::string::insert(unsigned long, unsigned long, char)
 .text._ZNSs6assignEmc
                0x02033b9c       0x28 d:/nburn/gcc-m68k/bin/../lib/gcc/m68k-elf/4.2.1/../../../../m68k-elf/lib/m5208\libstdc++.a(string-inst.o)
                0x02033b9c                std::string::assign(unsigned long, char)
 .text._ZNSsaSEc
                0x02033bc4       0x30 d:/nburn/gcc-m68k/bin/../lib/gcc/m68k-elf/4.2.1/../../../../m68k-elf/lib/m5208\libstdc++.a(string-inst.o)
                0x02033bc4                std::string::operator=(char)
 .text._ZNSs6insertEN9__gnu_cxx17__normal_iteratorIPcSsEEmc
                0x02033bf4       0x30 d:/nburn/gcc-m68k/bin/../lib/gcc/m68k-elf/4.2.1/../../../../m68k-elf/lib/m5208\libstdc++.a(string-inst.o)
                0x02033bf4                std::string::insert(__gnu_cxx::__normal_iterator<char*, std::string>, unsigned long, char)
 .text._ZNSs5eraseEN9__gnu_cxx17__normal_iteratorIPcSsEES2_
                0x02033c24       0x40 d:/nburn/gcc-m68k/bin/../lib/gcc/m68k-elf/4.2.1/../../../../m68k-elf/lib/m5208\libstdc++.a(string-inst.o)
                0x02033c24                std::string::erase(__gnu_cxx::__normal_iterator<char*, std::string>, __gnu_cxx::__normal_iterator<char*, std::string>)
 .text._ZNSs5eraseEN9__gnu_cxx17__normal_iteratorIPcSsEE
                0x02033c64       0x3a d:/nburn/gcc-m68k/bin/../lib/gcc/m68k-elf/4.2.1/../../../../m68k-elf/lib/m5208\libstdc++.a(string-inst.o)
                0x02033c64                std::string::erase(__gnu_cxx::__normal_iterator<char*, std::string>)
 .text._ZNSs5eraseEmm
                0x02033c9e       0x5e d:/nburn/gcc-m68k/bin/../lib/gcc/m68k-elf/4.2.1/../../../../m68k-elf/lib/m5208\libstdc++.a(string-inst.o)
                0x02033c9e                std::string::erase(unsigned long, unsigned long)
 .text._ZNSs5clearEv
                0x02033cfc       0x24 d:/nburn/gcc-m68k/bin/../lib/gcc/m68k-elf/4.2.1/../../../../m68k-elf/lib/m5208\libstdc++.a(string-inst.o)
                0x02033cfc                std::string::clear()
 .text._ZNSs12_M_leak_hardEv
                0x02033d20       0x4e d:/nburn/gcc-m68k/bin/../lib/gcc/m68k-elf/4.2.1/../../../../m68k-elf/lib/m5208\libstdc++.a(string-inst.o)
                0x02033d20                std::string::_M_leak_hard()
 .text._ZNSs7_M_leakEv
                0x02033d6e       0x1c d:/nburn/gcc-m68k/bin/../lib/gcc/m68k-elf/4.2.1/../../../../m68k-elf/lib/m5208\libstdc++.a(string-inst.o)
                0x02033d6e                std::string::_M_leak()
 .text._ZNSs2atEm
                0x02033d8a       0x58 d:/nburn/gcc-m68k/bin/../lib/gcc/m68k-elf/4.2.1/../../../../m68k-elf/lib/m5208\libstdc++.a(string-inst.o)
                0x02033d8a                std::string::at(unsigned long)
 .text._ZNSsixEm
                0x02033de2       0x3a d:/nburn/gcc-m68k/bin/../lib/gcc/m68k-elf/4.2.1/../../../../m68k-elf/lib/m5208\libstdc++.a(string-inst.o)
                0x02033de2                std::string::operator[](unsigned long)
 .text._ZNSs3endEv
                0x02033e1c       0x42 d:/nburn/gcc-m68k/bin/../lib/gcc/m68k-elf/4.2.1/../../../../m68k-elf/lib/m5208\libstdc++.a(string-inst.o)
                0x02033e1c                std::string::end()
 .text._ZNSs5beginEv
                0x02033e5e       0x32 d:/nburn/gcc-m68k/bin/../lib/gcc/m68k-elf/4.2.1/../../../../m68k-elf/lib/m5208\libstdc++.a(string-inst.o)
                0x02033e5e                std::string::begin()
 .text._ZNSs4rendEv
                0x02033e90       0x42 d:/nburn/gcc-m68k/bin/../lib/gcc/m68k-elf/4.2.1/../../../../m68k-elf/lib/m5208\libstdc++.a(string-inst.o)
                0x02033e90                std::string::rend()
 .text._ZNSs6rbeginEv
                0x02033ed2       0x4a d:/nburn/gcc-m68k/bin/../lib/gcc/m68k-elf/4.2.1/../../../../m68k-elf/lib/m5208\libstdc++.a(string-inst.o)
                0x02033ed2                std::string::rbegin()
 .text._ZNSs6resizeEmc
                0x02033f1c       0x70 d:/nburn/gcc-m68k/bin/../lib/gcc/m68k-elf/4.2.1/../../../../m68k-elf/lib/m5208\libstdc++.a(string-inst.o)
                0x02033f1c                std::string::resize(unsigned long, char)
 .text._ZNSs6resizeEm
                0x02033f8c       0x1e d:/nburn/gcc-m68k/bin/../lib/gcc/m68k-elf/4.2.1/../../../../m68k-elf/lib/m5208\libstdc++.a(string-inst.o)
                0x02033f8c                std::string::resize(unsigned long)
 .text._ZNSs13_S_copy_charsEPcPKcS1_
                0x02033faa       0x2a d:/nburn/gcc-m68k/bin/../lib/gcc/m68k-elf/4.2.1/../../../../m68k-elf/lib/m5208\libstdc++.a(string-inst.o)
                0x02033faa                std::string::_S_copy_chars(char*, char const*, char const*)
 .text._ZNKSs4copyEPcmm
                0x02033fd4       0x6e d:/nburn/gcc-m68k/bin/../lib/gcc/m68k-elf/4.2.1/../../../../m68k-elf/lib/m5208\libstdc++.a(string-inst.o)
                0x02033fd4                std::string::copy(char*, unsigned long, unsigned long) const
 .text._ZNSs15_M_replace_safeEmmPKcm
                0x02034042       0x6a d:/nburn/gcc-m68k/bin/../lib/gcc/m68k-elf/4.2.1/../../../../m68k-elf/lib/m5208\libstdc++.a(string-inst.o)
                0x02034042                std::string::_M_replace_safe(unsigned long, unsigned long, char const*, unsigned long)
 .text._ZNSs6insertEmPKcm
                0x020340ac      0x172 d:/nburn/gcc-m68k/bin/../lib/gcc/m68k-elf/4.2.1/../../../../m68k-elf/lib/m5208\libstdc++.a(string-inst.o)
                0x020340ac                std::string::insert(unsigned long, char const*, unsigned long)
 .text._ZNSs6insertEmPKc
                0x0203421e       0x2c d:/nburn/gcc-m68k/bin/../lib/gcc/m68k-elf/4.2.1/../../../../m68k-elf/lib/m5208\libstdc++.a(string-inst.o)
                0x0203421e                std::string::insert(unsigned long, char const*)
 .text._ZNSs6insertEmRKSsmm
                0x0203424a       0x52 d:/nburn/gcc-m68k/bin/../lib/gcc/m68k-elf/4.2.1/../../../../m68k-elf/lib/m5208\libstdc++.a(string-inst.o)
                0x0203424a                std::string::insert(unsigned long, std::string const&, unsigned long, unsigned long)
 .text._ZNSs6insertEmRKSs
                0x0203429c       0x22 d:/nburn/gcc-m68k/bin/../lib/gcc/m68k-elf/4.2.1/../../../../m68k-elf/lib/m5208\libstdc++.a(string-inst.o)
                0x0203429c                std::string::insert(unsigned long, std::string const&)
 .text._ZNSs6assignEPKcm
                0x020342be       0xf4 d:/nburn/gcc-m68k/bin/../lib/gcc/m68k-elf/4.2.1/../../../../m68k-elf/lib/m5208\libstdc++.a(string-inst.o)
                0x020342be                std::string::assign(char const*, unsigned long)
 .text._ZNSs6assignEPKc
                0x020343b2       0x28 d:/nburn/gcc-m68k/bin/../lib/gcc/m68k-elf/4.2.1/../../../../m68k-elf/lib/m5208\libstdc++.a(string-inst.o)
                0x020343b2                std::string::assign(char const*)
 .text._ZNSs6assignERKSsmm
                0x020343da       0x52 d:/nburn/gcc-m68k/bin/../lib/gcc/m68k-elf/4.2.1/../../../../m68k-elf/lib/m5208\libstdc++.a(string-inst.o)
                0x020343da                std::string::assign(std::string const&, unsigned long, unsigned long)
 .text._ZNSsaSEPKc
                0x0203442c       0x28 d:/nburn/gcc-m68k/bin/../lib/gcc/m68k-elf/4.2.1/../../../../m68k-elf/lib/m5208\libstdc++.a(string-inst.o)
                0x0203442c                std::string::operator=(char const*)
 .text._ZNSs13_S_copy_charsEPcN9__gnu_cxx17__normal_iteratorIPKcSsEES4_
                0x02034454       0x2a d:/nburn/gcc-m68k/bin/../lib/gcc/m68k-elf/4.2.1/../../../../m68k-elf/lib/m5208\libstdc++.a(string-inst.o)
                0x02034454                std::string::_S_copy_chars(char*, __gnu_cxx::__normal_iterator<char const*, std::string>, __gnu_cxx::__normal_iterator<char const*, std::string>)
 .text._ZNSs13_S_copy_charsEPcN9__gnu_cxx17__normal_iteratorIS_SsEES2_
                0x0203447e       0x2a d:/nburn/gcc-m68k/bin/../lib/gcc/m68k-elf/4.2.1/../../../../m68k-elf/lib/m5208\libstdc++.a(string-inst.o)
                0x0203447e                std::string::_S_copy_chars(char*, __gnu_cxx::__normal_iterator<char*, std::string>, __gnu_cxx::__normal_iterator<char*, std::string>)
 .text._ZNSs12_S_constructIPKcEEPcT_S3_RKSaIcESt20forward_iterator_tag
                0x020344a8       0x88 d:/nburn/gcc-m68k/bin/../lib/gcc/m68k-elf/4.2.1/../../../../m68k-elf/lib/m5208\libstdc++.a(string-inst.o)
                0x020344a8                char* std::string::_S_construct<char const*>(char const*, char const*, std::allocator<char> const&, std::forward_iterator_tag)
 .text._ZNSsC2IPKcEET_S2_RKSaIcE
                0x02034530       0x28 d:/nburn/gcc-m68k/bin/../lib/gcc/m68k-elf/4.2.1/../../../../m68k-elf/lib/m5208\libstdc++.a(string-inst.o)
                0x02034530                std::basic_string<char, std::char_traits<char>, std::allocator<char> >::basic_string<char const*>(char const*, char const*, std::allocator<char> const&)
 .text._ZNSsC1EPKcRKSaIcE
                0x02034558       0x62 d:/nburn/gcc-m68k/bin/../lib/gcc/m68k-elf/4.2.1/../../../../m68k-elf/lib/m5208\libstdc++.a(string-inst.o)
                0x02034558                std::basic_string<char, std::char_traits<char>, std::allocator<char> >::basic_string(char const*, std::allocator<char> const&)
 .text._ZNSsC1EPKcmRKSaIcE
                0x020345ba       0x2e d:/nburn/gcc-m68k/bin/../lib/gcc/m68k-elf/4.2.1/../../../../m68k-elf/lib/m5208\libstdc++.a(string-inst.o)
                0x020345ba                std::basic_string<char, std::char_traits<char>, std::allocator<char> >::basic_string(char const*, unsigned long, std::allocator<char> const&)
 .text._ZNSsC2EPKcmRKSaIcE
                0x020345e8       0x2e d:/nburn/gcc-m68k/bin/../lib/gcc/m68k-elf/4.2.1/../../../../m68k-elf/lib/m5208\libstdc++.a(string-inst.o)
                0x020345e8                std::basic_string<char, std::char_traits<char>, std::allocator<char> >::basic_string(char const*, unsigned long, std::allocator<char> const&)
 .text._ZNSsC2EPKcRKSaIcE
                0x02034616       0x62 d:/nburn/gcc-m68k/bin/../lib/gcc/m68k-elf/4.2.1/../../../../m68k-elf/lib/m5208\libstdc++.a(string-inst.o)
                0x02034616                std::basic_string<char, std::char_traits<char>, std::allocator<char> >::basic_string(char const*, std::allocator<char> const&)
 .text._ZNSsC1IPKcEET_S2_RKSaIcE
                0x02034678       0x28 d:/nburn/gcc-m68k/bin/../lib/gcc/m68k-elf/4.2.1/../../../../m68k-elf/lib/m5208\libstdc++.a(string-inst.o)
                0x02034678                std::basic_string<char, std::char_traits<char>, std::allocator<char> >::basic_string<char const*>(char const*, char const*, std::allocator<char> const&)
 .text._ZNSs12_S_constructIPcEES0_T_S1_RKSaIcESt20forward_iterator_tag
                0x020346a0       0x88 d:/nburn/gcc-m68k/bin/../lib/gcc/m68k-elf/4.2.1/../../../../m68k-elf/lib/m5208\libstdc++.a(string-inst.o)
                0x020346a0                char* std::string::_S_construct<char*>(char*, char*, std::allocator<char> const&, std::forward_iterator_tag)
 .text._ZNSsC2ERKSsmm
                0x02034728       0x66 d:/nburn/gcc-m68k/bin/../lib/gcc/m68k-elf/4.2.1/../../../../m68k-elf/lib/m5208\libstdc++.a(string-inst.o)
                0x02034728                std::basic_string<char, std::char_traits<char>, std::allocator<char> >::basic_string(std::string const&, unsigned long, unsigned long)
 .text._ZNSsC1IPcEET_S1_RKSaIcE
                0x0203478e       0x28 d:/nburn/gcc-m68k/bin/../lib/gcc/m68k-elf/4.2.1/../../../../m68k-elf/lib/m5208\libstdc++.a(string-inst.o)
                0x0203478e                std::basic_string<char, std::char_traits<char>, std::allocator<char> >::basic_string<char*>(char*, char*, std::allocator<char> const&)
 .text._ZNSsC2IPcEET_S1_RKSaIcE
                0x020347b6       0x28 d:/nburn/gcc-m68k/bin/../lib/gcc/m68k-elf/4.2.1/../../../../m68k-elf/lib/m5208\libstdc++.a(string-inst.o)
                0x020347b6                std::basic_string<char, std::char_traits<char>, std::allocator<char> >::basic_string<char*>(char*, char*, std::allocator<char> const&)
 .text._ZNSsC1ERKSsmmRKSaIcE
                0x020347de       0x82 d:/nburn/gcc-m68k/bin/../lib/gcc/m68k-elf/4.2.1/../../../../m68k-elf/lib/m5208\libstdc++.a(string-inst.o)
                0x020347de                std::basic_string<char, std::char_traits<char>, std::allocator<char> >::basic_string(std::string const&, unsigned long, unsigned long, std::allocator<char> const&)
 .text._ZNSsC2ERKSsmmRKSaIcE
                0x02034860       0x82 d:/nburn/gcc-m68k/bin/../lib/gcc/m68k-elf/4.2.1/../../../../m68k-elf/lib/m5208\libstdc++.a(string-inst.o)
                0x02034860                std::basic_string<char, std::char_traits<char>, std::allocator<char> >::basic_string(std::string const&, unsigned long, unsigned long, std::allocator<char> const&)
 .text._ZNSsC1ERKSsmm
                0x020348e2       0x66 d:/nburn/gcc-m68k/bin/../lib/gcc/m68k-elf/4.2.1/../../../../m68k-elf/lib/m5208\libstdc++.a(string-inst.o)
                0x020348e2                std::basic_string<char, std::char_traits<char>, std::allocator<char> >::basic_string(std::string const&, unsigned long, unsigned long)
 .text._ZNKSs6substrEmm
                0x02034948       0x3e d:/nburn/gcc-m68k/bin/../lib/gcc/m68k-elf/4.2.1/../../../../m68k-elf/lib/m5208\libstdc++.a(string-inst.o)
                0x02034948                std::string::substr(unsigned long, unsigned long) const
 .text._ZNSs12_S_constructIN9__gnu_cxx17__normal_iteratorIPcSsEEEES2_T_S4_RKSaIcESt20forward_iterator_tag
                0x02034986       0x84 d:/nburn/gcc-m68k/bin/../lib/gcc/m68k-elf/4.2.1/../../../../m68k-elf/lib/m5208\libstdc++.a(string-inst.o)
                0x02034986                char* std::string::_S_construct<__gnu_cxx::__normal_iterator<char*, std::string> >(__gnu_cxx::__normal_iterator<char*, std::string>, __gnu_cxx::__normal_iterator<char*, std::string>, std::allocator<char> const&, std::forward_iterator_tag)
 .text._ZNSsC1IN9__gnu_cxx17__normal_iteratorIPcSsEEEET_S4_RKSaIcE
                0x02034a0a       0x28 d:/nburn/gcc-m68k/bin/../lib/gcc/m68k-elf/4.2.1/../../../../m68k-elf/lib/m5208\libstdc++.a(string-inst.o)
                0x02034a0a                std::basic_string<char, std::char_traits<char>, std::allocator<char> >::basic_string<__gnu_cxx::__normal_iterator<char*, std::string> >(__gnu_cxx::__normal_iterator<char*, std::string>, __gnu_cxx::__normal_iterator<char*, std::string>, std::allocator<char> const&)
 .text._ZNSsC2IN9__gnu_cxx17__normal_iteratorIPcSsEEEET_S4_RKSaIcE
                0x02034a32       0x28 d:/nburn/gcc-m68k/bin/../lib/gcc/m68k-elf/4.2.1/../../../../m68k-elf/lib/m5208\libstdc++.a(string-inst.o)
                0x02034a32                std::basic_string<char, std::char_traits<char>, std::allocator<char> >::basic_string<__gnu_cxx::__normal_iterator<char*, std::string> >(__gnu_cxx::__normal_iterator<char*, std::string>, __gnu_cxx::__normal_iterator<char*, std::string>, std::allocator<char> const&)
 .text._ZNSsC1ERKSs
                0x02034a5a       0x66 d:/nburn/gcc-m68k/bin/../lib/gcc/m68k-elf/4.2.1/../../../../m68k-elf/lib/m5208\libstdc++.a(string-inst.o)
                0x02034a5a                std::basic_string<char, std::char_traits<char>, std::allocator<char> >::basic_string(std::string const&)
 .text._ZNSsC2ERKSs
                0x02034ac0       0x66 d:/nburn/gcc-m68k/bin/../lib/gcc/m68k-elf/4.2.1/../../../../m68k-elf/lib/m5208\libstdc++.a(string-inst.o)
                0x02034ac0                std::basic_string<char, std::char_traits<char>, std::allocator<char> >::basic_string(std::string const&)
 .text._ZNSs6assignERKSs
                0x02034b26       0xb2 d:/nburn/gcc-m68k/bin/../lib/gcc/m68k-elf/4.2.1/../../../../m68k-elf/lib/m5208\libstdc++.a(string-inst.o)
                0x02034b26                std::string::assign(std::string const&)
 .text._ZNSsaSERKSs
                0x02034bd8        0xc d:/nburn/gcc-m68k/bin/../lib/gcc/m68k-elf/4.2.1/../../../../m68k-elf/lib/m5208\libstdc++.a(string-inst.o)
                0x02034bd8                std::string::operator=(std::string const&)
 .text._ZStplIcSt11char_traitsIcESaIcEESbIT_T0_T1_ERKS6_S8_
                0x02034be4       0x6e d:/nburn/gcc-m68k/bin/../lib/gcc/m68k-elf/4.2.1/../../../../m68k-elf/lib/m5208\libstdc++.a(string-inst.o)
                0x02034be4                std::basic_string<char, std::char_traits<char>, std::allocator<char> > std::operator+<char, std::char_traits<char>, std::allocator<char> >(std::basic_string<char, std::char_traits<char>, std::allocator<char> > const&, std::basic_string<char, std::char_traits<char>, std::allocator<char> > const&)
 .text._ZStplIcSt11char_traitsIcESaIcEESbIT_T0_T1_ES3_RKS6_
                0x02034c52       0x92 d:/nburn/gcc-m68k/bin/../lib/gcc/m68k-elf/4.2.1/../../../../m68k-elf/lib/m5208\libstdc++.a(string-inst.o)
                0x02034c52                std::basic_string<char, std::char_traits<char>, std::allocator<char> > std::operator+<char, std::char_traits<char>, std::allocator<char> >(char, std::basic_string<char, std::char_traits<char>, std::allocator<char> > const&)
 .text._ZStplIcSt11char_traitsIcESaIcEESbIT_T0_T1_EPKS3_RKS6_
                0x02034ce4       0x96 d:/nburn/gcc-m68k/bin/../lib/gcc/m68k-elf/4.2.1/../../../../m68k-elf/lib/m5208\libstdc++.a(string-inst.o)
                0x02034ce4                std::basic_string<char, std::char_traits<char>, std::allocator<char> > std::operator+<char, std::char_traits<char>, std::allocator<char> >(char const*, std::basic_string<char, std::char_traits<char>, std::allocator<char> > const&)
 .text._ZNSs7replaceEmmPKcm
                0x02034d7a      0x1c8 d:/nburn/gcc-m68k/bin/../lib/gcc/m68k-elf/4.2.1/../../../../m68k-elf/lib/m5208\libstdc++.a(string-inst.o)
                0x02034d7a                std::string::replace(unsigned long, unsigned long, char const*, unsigned long)
 .text._ZNSs7replaceEN9__gnu_cxx17__normal_iteratorIPcSsEES2_NS0_IPKcSsEES5_
                0x02034f42       0x26 d:/nburn/gcc-m68k/bin/../lib/gcc/m68k-elf/4.2.1/../../../../m68k-elf/lib/m5208\libstdc++.a(string-inst.o)
                0x02034f42                std::string::replace(__gnu_cxx::__normal_iterator<char*, std::string>, __gnu_cxx::__normal_iterator<char*, std::string>, __gnu_cxx::__normal_iterator<char const*, std::string>, __gnu_cxx::__normal_iterator<char const*, std::string>)
 .text._ZNSs7replaceEN9__gnu_cxx17__normal_iteratorIPcSsEES2_S2_S2_
                0x02034f68       0x26 d:/nburn/gcc-m68k/bin/../lib/gcc/m68k-elf/4.2.1/../../../../m68k-elf/lib/m5208\libstdc++.a(string-inst.o)
                0x02034f68                std::string::replace(__gnu_cxx::__normal_iterator<char*, std::string>, __gnu_cxx::__normal_iterator<char*, std::string>, __gnu_cxx::__normal_iterator<char*, std::string>, __gnu_cxx::__normal_iterator<char*, std::string>)
 .text._ZNSs7replaceEN9__gnu_cxx17__normal_iteratorIPcSsEES2_PKcS4_
                0x02034f8e       0x26 d:/nburn/gcc-m68k/bin/../lib/gcc/m68k-elf/4.2.1/../../../../m68k-elf/lib/m5208\libstdc++.a(string-inst.o)
                0x02034f8e                std::string::replace(__gnu_cxx::__normal_iterator<char*, std::string>, __gnu_cxx::__normal_iterator<char*, std::string>, char const*, char const*)
 .text._ZNSs7replaceEN9__gnu_cxx17__normal_iteratorIPcSsEES2_S1_S1_
                0x02034fb4       0x26 d:/nburn/gcc-m68k/bin/../lib/gcc/m68k-elf/4.2.1/../../../../m68k-elf/lib/m5208\libstdc++.a(string-inst.o)
                0x02034fb4                std::string::replace(__gnu_cxx::__normal_iterator<char*, std::string>, __gnu_cxx::__normal_iterator<char*, std::string>, char*, char*)
 .text._ZNSs7replaceEN9__gnu_cxx17__normal_iteratorIPcSsEES2_PKcm
                0x02034fda       0x1e d:/nburn/gcc-m68k/bin/../lib/gcc/m68k-elf/4.2.1/../../../../m68k-elf/lib/m5208\libstdc++.a(string-inst.o)
                0x02034fda                std::string::replace(__gnu_cxx::__normal_iterator<char*, std::string>, __gnu_cxx::__normal_iterator<char*, std::string>, char const*, unsigned long)
 .text._ZNSs7replaceEmmPKc
                0x02034ff8       0x30 d:/nburn/gcc-m68k/bin/../lib/gcc/m68k-elf/4.2.1/../../../../m68k-elf/lib/m5208\libstdc++.a(string-inst.o)
                0x02034ff8                std::string::replace(unsigned long, unsigned long, char const*)
 .text._ZNSs7replaceEmmRKSsmm
                0x02035028       0x52 d:/nburn/gcc-m68k/bin/../lib/gcc/m68k-elf/4.2.1/../../../../m68k-elf/lib/m5208\libstdc++.a(string-inst.o)
                0x02035028                std::string::replace(unsigned long, unsigned long, std::string const&, unsigned long, unsigned long)
 .text._ZNSs7replaceEmmRKSs
                0x0203507a       0x26 d:/nburn/gcc-m68k/bin/../lib/gcc/m68k-elf/4.2.1/../../../../m68k-elf/lib/m5208\libstdc++.a(string-inst.o)
                0x0203507a                std::string::replace(unsigned long, unsigned long, std::string const&)
 .text._ZNSs7replaceEN9__gnu_cxx17__normal_iteratorIPcSsEES2_PKc
                0x020350a0       0x40 d:/nburn/gcc-m68k/bin/../lib/gcc/m68k-elf/4.2.1/../../../../m68k-elf/lib/m5208\libstdc++.a(string-inst.o)
                0x020350a0                std::string::replace(__gnu_cxx::__normal_iterator<char*, std::string>, __gnu_cxx::__normal_iterator<char*, std::string>, char const*)
 .text._ZNSs7replaceEN9__gnu_cxx17__normal_iteratorIPcSsEES2_RKSs
                0x020350e0       0x30 d:/nburn/gcc-m68k/bin/../lib/gcc/m68k-elf/4.2.1/../../../../m68k-elf/lib/m5208\libstdc++.a(string-inst.o)
                0x020350e0                std::string::replace(__gnu_cxx::__normal_iterator<char*, std::string>, __gnu_cxx::__normal_iterator<char*, std::string>, std::string const&)
 .text._ZNSs4swapERSs
                0x02035110       0x40 d:/nburn/gcc-m68k/bin/../lib/gcc/m68k-elf/4.2.1/../../../../m68k-elf/lib/m5208\libstdc++.a(string-inst.o)
                0x02035110                std::string::swap(std::string&)
 .text._ZdlPv   0x02035150       0x16 d:/nburn/gcc-m68k/bin/../lib/gcc/m68k-elf/4.2.1/../../../../m68k-elf/lib/m5208\libstdc++.a(del_op.o)
                0x02035150                operator delete(void*)
 .text._Z12read_uleb128PKhPj
                0x02035166       0x30 d:/nburn/gcc-m68k/bin/../lib/gcc/m68k-elf/4.2.1/../../../../m68k-elf/lib/m5208\libstdc++.a(eh_personality.o)
 .text._Z12read_sleb128PKhPi
                0x02035196       0x46 d:/nburn/gcc-m68k/bin/../lib/gcc/m68k-elf/4.2.1/../../../../m68k-elf/lib/m5208\libstdc++.a(eh_personality.o)
 .text._Z16get_adjusted_ptrPKSt9type_infoS1_PPv
                0x020351dc       0x6a d:/nburn/gcc-m68k/bin/../lib/gcc/m68k-elf/4.2.1/../../../../m68k-elf/lib/m5208\libstdc++.a(eh_personality.o)
 .text._Z28read_encoded_value_with_basehjPKhPj
                0x02035246      0x12a d:/nburn/gcc-m68k/bin/../lib/gcc/m68k-elf/4.2.1/../../../../m68k-elf/lib/m5208\libstdc++.a(eh_personality.o)
 .text._Z21base_of_encoded_valuehP15_Unwind_Context
                0x02035370       0x8c d:/nburn/gcc-m68k/bin/../lib/gcc/m68k-elf/4.2.1/../../../../m68k-elf/lib/m5208\libstdc++.a(eh_personality.o)
 .text._Z17parse_lsda_headerP15_Unwind_ContextPKhP16lsda_header_info
                0x020353fc       0xec d:/nburn/gcc-m68k/bin/../lib/gcc/m68k-elf/4.2.1/../../../../m68k-elf/lib/m5208\libstdc++.a(eh_personality.o)
 .text._Z15get_ttype_entryP16lsda_header_infoj
                0x020354e8       0xe2 d:/nburn/gcc-m68k/bin/../lib/gcc/m68k-elf/4.2.1/../../../../m68k-elf/lib/m5208\libstdc++.a(eh_personality.o)
 .text._Z20check_exception_specP16lsda_header_infoPKSt9type_infoPvi
                0x020355ca       0x70 d:/nburn/gcc-m68k/bin/../lib/gcc/m68k-elf/4.2.1/../../../../m68k-elf/lib/m5208\libstdc++.a(eh_personality.o)
 .text.__cxa_call_unexpected
                0x0203563a       0xde d:/nburn/gcc-m68k/bin/../lib/gcc/m68k-elf/4.2.1/../../../../m68k-elf/lib/m5208\libstdc++.a(eh_personality.o)
                0x0203563a                __cxa_call_unexpected
 .text.__gxx_personality_v0
                0x02035718      0x440 d:/nburn/gcc-m68k/bin/../lib/gcc/m68k-elf/4.2.1/../../../../m68k-elf/lib/m5208\libstdc++.a(eh_personality.o)
                0x02035718                __gxx_personality_v0
 .text._Z41__static_initialization_and_destruction_0ii
                0x02035b58        0x8 d:/nburn/gcc-m68k/bin/../lib/gcc/m68k-elf/4.2.1/../../../../m68k-elf/lib/m5208\libstdc++.a(eh_alloc.o)
 .text._GLOBAL__I___cxa_allocate_exception
                0x02035b60       0x1a d:/nburn/gcc-m68k/bin/../lib/gcc/m68k-elf/4.2.1/../../../../m68k-elf/lib/m5208\libstdc++.a(eh_alloc.o)
 .text.__cxa_allocate_exception
                0x02035b7a       0xa4 d:/nburn/gcc-m68k/bin/../lib/gcc/m68k-elf/4.2.1/../../../../m68k-elf/lib/m5208\libstdc++.a(eh_alloc.o)
                0x02035b7a                __cxa_allocate_exception
 .text.__cxa_free_exception
                0x02035c1e       0x4a d:/nburn/gcc-m68k/bin/../lib/gcc/m68k-elf/4.2.1/../../../../m68k-elf/lib/m5208\libstdc++.a(eh_alloc.o)
                0x02035c1e                __cxa_free_exception
 .text._ZSt18__throw_bad_typeidv
                0x02035c68       0x2a d:/nburn/gcc-m68k/bin/../lib/gcc/m68k-elf/4.2.1/../../../../m68k-elf/lib/m5208\libstdc++.a(functexcept.o)
                0x02035c68                std::__throw_bad_typeid()
 .text._ZSt16__throw_bad_castv
                0x02035c92       0x2a d:/nburn/gcc-m68k/bin/../lib/gcc/m68k-elf/4.2.1/../../../../m68k-elf/lib/m5208\libstdc++.a(functexcept.o)
                0x02035c92                std::__throw_bad_cast()
 .text._ZSt17__throw_bad_allocv
                0x02035cbc       0x2a d:/nburn/gcc-m68k/bin/../lib/gcc/m68k-elf/4.2.1/../../../../m68k-elf/lib/m5208\libstdc++.a(functexcept.o)
                0x02035cbc                std::__throw_bad_alloc()
 .text._ZSt21__throw_bad_exceptionv
                0x02035ce6       0x2a d:/nburn/gcc-m68k/bin/../lib/gcc/m68k-elf/4.2.1/../../../../m68k-elf/lib/m5208\libstdc++.a(functexcept.o)
                0x02035ce6                std::__throw_bad_exception()
 .text._ZNSt15underflow_errorD0Ev
                0x02035d10       0x2a d:/nburn/gcc-m68k/bin/../lib/gcc/m68k-elf/4.2.1/../../../../m68k-elf/lib/m5208\libstdc++.a(functexcept.o)
                0x02035d10                std::underflow_error::~underflow_error()
 .text._ZNSt15underflow_errorD1Ev
                0x02035d3a       0x16 d:/nburn/gcc-m68k/bin/../lib/gcc/m68k-elf/4.2.1/../../../../m68k-elf/lib/m5208\libstdc++.a(functexcept.o)
                0x02035d3a                std::underflow_error::~underflow_error()
 .text._ZNSt14overflow_errorD0Ev
                0x02035d50       0x2a d:/nburn/gcc-m68k/bin/../lib/gcc/m68k-elf/4.2.1/../../../../m68k-elf/lib/m5208\libstdc++.a(functexcept.o)
                0x02035d50                std::overflow_error::~overflow_error()
 .text._ZNSt14overflow_errorD1Ev
                0x02035d7a       0x16 d:/nburn/gcc-m68k/bin/../lib/gcc/m68k-elf/4.2.1/../../../../m68k-elf/lib/m5208\libstdc++.a(functexcept.o)
                0x02035d7a                std::overflow_error::~overflow_error()
 .text._ZNSt11range_errorD0Ev
                0x02035d90       0x2a d:/nburn/gcc-m68k/bin/../lib/gcc/m68k-elf/4.2.1/../../../../m68k-elf/lib/m5208\libstdc++.a(functexcept.o)
                0x02035d90                std::range_error::~range_error()
 .text._ZNSt11range_errorD1Ev
                0x02035dba       0x16 d:/nburn/gcc-m68k/bin/../lib/gcc/m68k-elf/4.2.1/../../../../m68k-elf/lib/m5208\libstdc++.a(functexcept.o)
                0x02035dba                std::range_error::~range_error()
 .text._ZNSt12out_of_rangeD0Ev
                0x02035dd0       0x2a d:/nburn/gcc-m68k/bin/../lib/gcc/m68k-elf/4.2.1/../../../../m68k-elf/lib/m5208\libstdc++.a(functexcept.o)
                0x02035dd0                std::out_of_range::~out_of_range()
 .text._ZNSt12out_of_rangeD1Ev
                0x02035dfa       0x16 d:/nburn/gcc-m68k/bin/../lib/gcc/m68k-elf/4.2.1/../../../../m68k-elf/lib/m5208\libstdc++.a(functexcept.o)
                0x02035dfa                std::out_of_range::~out_of_range()
 .text._ZNSt12length_errorD0Ev
                0x02035e10       0x2a d:/nburn/gcc-m68k/bin/../lib/gcc/m68k-elf/4.2.1/../../../../m68k-elf/lib/m5208\libstdc++.a(functexcept.o)
                0x02035e10                std::length_error::~length_error()
 .text._ZNSt12length_errorD1Ev
                0x02035e3a       0x16 d:/nburn/gcc-m68k/bin/../lib/gcc/m68k-elf/4.2.1/../../../../m68k-elf/lib/m5208\libstdc++.a(functexcept.o)
                0x02035e3a                std::length_error::~length_error()
 .text._ZNSt16invalid_argumentD0Ev
                0x02035e50       0x2a d:/nburn/gcc-m68k/bin/../lib/gcc/m68k-elf/4.2.1/../../../../m68k-elf/lib/m5208\libstdc++.a(functexcept.o)
                0x02035e50                std::invalid_argument::~invalid_argument()
 .text._ZNSt16invalid_argumentD1Ev
                0x02035e7a       0x16 d:/nburn/gcc-m68k/bin/../lib/gcc/m68k-elf/4.2.1/../../../../m68k-elf/lib/m5208\libstdc++.a(functexcept.o)
                0x02035e7a                std::invalid_argument::~invalid_argument()
 .text._ZNSt12domain_errorD0Ev
                0x02035e90       0x2a d:/nburn/gcc-m68k/bin/../lib/gcc/m68k-elf/4.2.1/../../../../m68k-elf/lib/m5208\libstdc++.a(functexcept.o)
                0x02035e90                std::domain_error::~domain_error()
 .text._ZNSt12domain_errorD1Ev
                0x02035eba       0x16 d:/nburn/gcc-m68k/bin/../lib/gcc/m68k-elf/4.2.1/../../../../m68k-elf/lib/m5208\libstdc++.a(functexcept.o)
                0x02035eba                std::domain_error::~domain_error()
 .text._ZSt19__throw_ios_failurePKc
                0x02035ed0       0x9c d:/nburn/gcc-m68k/bin/../lib/gcc/m68k-elf/4.2.1/../../../../m68k-elf/lib/m5208\libstdc++.a(functexcept.o)
                0x02035ed0                std::__throw_ios_failure(char const*)
 .text._ZSt19__throw_logic_errorPKc
                0x02035f6c       0xd8 d:/nburn/gcc-m68k/bin/../lib/gcc/m68k-elf/4.2.1/../../../../m68k-elf/lib/m5208\libstdc++.a(functexcept.o)
                0x02035f6c                std::__throw_logic_error(char const*)
 .text._ZSt23__throw_underflow_errorPKc
                0x02036044       0xd8 d:/nburn/gcc-m68k/bin/../lib/gcc/m68k-elf/4.2.1/../../../../m68k-elf/lib/m5208\libstdc++.a(functexcept.o)
                0x02036044                std::__throw_underflow_error(char const*)
 .text._ZSt22__throw_overflow_errorPKc
                0x0203611c       0xd8 d:/nburn/gcc-m68k/bin/../lib/gcc/m68k-elf/4.2.1/../../../../m68k-elf/lib/m5208\libstdc++.a(functexcept.o)
                0x0203611c                std::__throw_overflow_error(char const*)
 .text._ZSt24__throw_invalid_argumentPKc
                0x020361f4       0xd8 d:/nburn/gcc-m68k/bin/../lib/gcc/m68k-elf/4.2.1/../../../../m68k-elf/lib/m5208\libstdc++.a(functexcept.o)
                0x020361f4                std::__throw_invalid_argument(char const*)
 .text._ZSt20__throw_domain_errorPKc
                0x020362cc       0xd8 d:/nburn/gcc-m68k/bin/../lib/gcc/m68k-elf/4.2.1/../../../../m68k-elf/lib/m5208\libstdc++.a(functexcept.o)
                0x020362cc                std::__throw_domain_error(char const*)
 .text._ZSt19__throw_range_errorPKc
                0x020363a4       0xd8 d:/nburn/gcc-m68k/bin/../lib/gcc/m68k-elf/4.2.1/../../../../m68k-elf/lib/m5208\libstdc++.a(functexcept.o)
                0x020363a4                std::__throw_range_error(char const*)
 .text._ZSt21__throw_runtime_errorPKc
                0x0203647c       0xd8 d:/nburn/gcc-m68k/bin/../lib/gcc/m68k-elf/4.2.1/../../../../m68k-elf/lib/m5208\libstdc++.a(functexcept.o)
                0x0203647c                std::__throw_runtime_error(char const*)
 .text._ZSt20__throw_out_of_rangePKc
                0x02036554       0xd8 d:/nburn/gcc-m68k/bin/../lib/gcc/m68k-elf/4.2.1/../../../../m68k-elf/lib/m5208\libstdc++.a(functexcept.o)
                0x02036554                std::__throw_out_of_range(char const*)
 .text._ZSt20__throw_length_errorPKc
                0x0203662c       0xd8 d:/nburn/gcc-m68k/bin/../lib/gcc/m68k-elf/4.2.1/../../../../m68k-elf/lib/m5208\libstdc++.a(functexcept.o)
                0x0203662c                std::__throw_length_error(char const*)
 .text._ZNKSt8ios_base7failure4whatEv
                0x02036704       0x10 d:/nburn/gcc-m68k/bin/../lib/gcc/m68k-elf/4.2.1/../../../../m68k-elf/lib/m5208\libstdc++.a(ios_failure.o)
                0x02036704                std::ios_base::failure::what() const
 .text._ZNSt8ios_base7failureD1Ev
                0x02036714       0x64 d:/nburn/gcc-m68k/bin/../lib/gcc/m68k-elf/4.2.1/../../../../m68k-elf/lib/m5208\libstdc++.a(ios_failure.o)
                0x02036714                std::ios_base::failure::~failure()
 .text._ZNSt8ios_base7failureC1ERKSs
                0x02036778       0x50 d:/nburn/gcc-m68k/bin/../lib/gcc/m68k-elf/4.2.1/../../../../m68k-elf/lib/m5208\libstdc++.a(ios_failure.o)
                0x02036778                std::ios_base::failure::failure(std::string const&)
 .text._ZNSt8ios_base7failureC2ERKSs
                0x020367c8       0x50 d:/nburn/gcc-m68k/bin/../lib/gcc/m68k-elf/4.2.1/../../../../m68k-elf/lib/m5208\libstdc++.a(ios_failure.o)
                0x020367c8                std::ios_base::failure::failure(std::string const&)
 .text._ZNSt8ios_base7failureD2Ev
                0x02036818       0x64 d:/nburn/gcc-m68k/bin/../lib/gcc/m68k-elf/4.2.1/../../../../m68k-elf/lib/m5208\libstdc++.a(ios_failure.o)
                0x02036818                std::ios_base::failure::~failure()
 .text._ZNSt8ios_base7failureD0Ev
                0x0203687c       0x74 d:/nburn/gcc-m68k/bin/../lib/gcc/m68k-elf/4.2.1/../../../../m68k-elf/lib/m5208\libstdc++.a(ios_failure.o)
                0x0203687c                std::ios_base::failure::~failure()
 .text._ZNKSt13runtime_error4whatEv
                0x020368f0       0x10 d:/nburn/gcc-m68k/bin/../lib/gcc/m68k-elf/4.2.1/../../../../m68k-elf/lib/m5208\libstdc++.a(stdexcept.o)
                0x020368f0                std::runtime_error::what() const
 .text._ZNSt11logic_errorD1Ev
                0x02036900       0x64 d:/nburn/gcc-m68k/bin/../lib/gcc/m68k-elf/4.2.1/../../../../m68k-elf/lib/m5208\libstdc++.a(stdexcept.o)
                0x02036900                std::logic_error::~logic_error()
 .text._ZNSt13runtime_errorC2ERKSs
                0x02036964       0x3a d:/nburn/gcc-m68k/bin/../lib/gcc/m68k-elf/4.2.1/../../../../m68k-elf/lib/m5208\libstdc++.a(stdexcept.o)
                0x02036964                std::runtime_error::runtime_error(std::string const&)
 .text._ZNSt15underflow_errorC1ERKSs
                0x0203699e       0x26 d:/nburn/gcc-m68k/bin/../lib/gcc/m68k-elf/4.2.1/../../../../m68k-elf/lib/m5208\libstdc++.a(stdexcept.o)
                0x0203699e                std::underflow_error::underflow_error(std::string const&)
 .text._ZNSt15underflow_errorC2ERKSs
                0x020369c4       0x26 d:/nburn/gcc-m68k/bin/../lib/gcc/m68k-elf/4.2.1/../../../../m68k-elf/lib/m5208\libstdc++.a(stdexcept.o)
                0x020369c4                std::underflow_error::underflow_error(std::string const&)
 .text._ZNSt14overflow_errorC1ERKSs
                0x020369ea       0x26 d:/nburn/gcc-m68k/bin/../lib/gcc/m68k-elf/4.2.1/../../../../m68k-elf/lib/m5208\libstdc++.a(stdexcept.o)
                0x020369ea                std::overflow_error::overflow_error(std::string const&)
 .text._ZNSt14overflow_errorC2ERKSs
                0x02036a10       0x26 d:/nburn/gcc-m68k/bin/../lib/gcc/m68k-elf/4.2.1/../../../../m68k-elf/lib/m5208\libstdc++.a(stdexcept.o)
                0x02036a10                std::overflow_error::overflow_error(std::string const&)
 .text._ZNSt11range_errorC1ERKSs
                0x02036a36       0x26 d:/nburn/gcc-m68k/bin/../lib/gcc/m68k-elf/4.2.1/../../../../m68k-elf/lib/m5208\libstdc++.a(stdexcept.o)
                0x02036a36                std::range_error::range_error(std::string const&)
 .text._ZNSt11range_errorC2ERKSs
                0x02036a5c       0x26 d:/nburn/gcc-m68k/bin/../lib/gcc/m68k-elf/4.2.1/../../../../m68k-elf/lib/m5208\libstdc++.a(stdexcept.o)
                0x02036a5c                std::range_error::range_error(std::string const&)
 .text._ZNSt11logic_errorC1ERKSs
                0x02036a82       0x3a d:/nburn/gcc-m68k/bin/../lib/gcc/m68k-elf/4.2.1/../../../../m68k-elf/lib/m5208\libstdc++.a(stdexcept.o)
                0x02036a82                std::logic_error::logic_error(std::string const&)
 .text._ZNSt11logic_errorC2ERKSs
                0x02036abc       0x3a d:/nburn/gcc-m68k/bin/../lib/gcc/m68k-elf/4.2.1/../../../../m68k-elf/lib/m5208\libstdc++.a(stdexcept.o)
                0x02036abc                std::logic_error::logic_error(std::string const&)
 .text._ZNSt12out_of_rangeC1ERKSs
                0x02036af6       0x26 d:/nburn/gcc-m68k/bin/../lib/gcc/m68k-elf/4.2.1/../../../../m68k-elf/lib/m5208\libstdc++.a(stdexcept.o)
                0x02036af6                std::out_of_range::out_of_range(std::string const&)
 .text._ZNSt12out_of_rangeC2ERKSs
                0x02036b1c       0x26 d:/nburn/gcc-m68k/bin/../lib/gcc/m68k-elf/4.2.1/../../../../m68k-elf/lib/m5208\libstdc++.a(stdexcept.o)
                0x02036b1c                std::out_of_range::out_of_range(std::string const&)
 .text._ZNSt12length_errorC1ERKSs
                0x02036b42       0x26 d:/nburn/gcc-m68k/bin/../lib/gcc/m68k-elf/4.2.1/../../../../m68k-elf/lib/m5208\libstdc++.a(stdexcept.o)
                0x02036b42                std::length_error::length_error(std::string const&)
 .text._ZNSt12length_errorC2ERKSs
                0x02036b68       0x26 d:/nburn/gcc-m68k/bin/../lib/gcc/m68k-elf/4.2.1/../../../../m68k-elf/lib/m5208\libstdc++.a(stdexcept.o)
                0x02036b68                std::length_error::length_error(std::string const&)
 .text._ZNSt16invalid_argumentC1ERKSs
                0x02036b8e       0x26 d:/nburn/gcc-m68k/bin/../lib/gcc/m68k-elf/4.2.1/../../../../m68k-elf/lib/m5208\libstdc++.a(stdexcept.o)
                0x02036b8e                std::invalid_argument::invalid_argument(std::string const&)
 .text._ZNSt16invalid_argumentC2ERKSs
                0x02036bb4       0x26 d:/nburn/gcc-m68k/bin/../lib/gcc/m68k-elf/4.2.1/../../../../m68k-elf/lib/m5208\libstdc++.a(stdexcept.o)
                0x02036bb4                std::invalid_argument::invalid_argument(std::string const&)
 .text._ZNSt12domain_errorC1ERKSs
                0x02036bda       0x26 d:/nburn/gcc-m68k/bin/../lib/gcc/m68k-elf/4.2.1/../../../../m68k-elf/lib/m5208\libstdc++.a(stdexcept.o)
                0x02036bda                std::domain_error::domain_error(std::string const&)
 .text._ZNSt12domain_errorC2ERKSs
                0x02036c00       0x26 d:/nburn/gcc-m68k/bin/../lib/gcc/m68k-elf/4.2.1/../../../../m68k-elf/lib/m5208\libstdc++.a(stdexcept.o)
                0x02036c00                std::domain_error::domain_error(std::string const&)
 .text._ZNKSt11logic_error4whatEv
                0x02036c26       0x10 d:/nburn/gcc-m68k/bin/../lib/gcc/m68k-elf/4.2.1/../../../../m68k-elf/lib/m5208\libstdc++.a(stdexcept.o)
                0x02036c26                std::logic_error::what() const
 .text._ZNSt13runtime_errorC1ERKSs
                0x02036c36       0x3a d:/nburn/gcc-m68k/bin/../lib/gcc/m68k-elf/4.2.1/../../../../m68k-elf/lib/m5208\libstdc++.a(stdexcept.o)
                0x02036c36                std::runtime_error::runtime_error(std::string const&)
 .text._ZNSt13runtime_errorD1Ev
                0x02036c70       0x64 d:/nburn/gcc-m68k/bin/../lib/gcc/m68k-elf/4.2.1/../../../../m68k-elf/lib/m5208\libstdc++.a(stdexcept.o)
                0x02036c70                std::runtime_error::~runtime_error()
 .text._ZNSt13runtime_errorD2Ev
                0x02036cd4       0x64 d:/nburn/gcc-m68k/bin/../lib/gcc/m68k-elf/4.2.1/../../../../m68k-elf/lib/m5208\libstdc++.a(stdexcept.o)
                0x02036cd4                std::runtime_error::~runtime_error()
 .text._ZNSt13runtime_errorD0Ev
                0x02036d38       0x74 d:/nburn/gcc-m68k/bin/../lib/gcc/m68k-elf/4.2.1/../../../../m68k-elf/lib/m5208\libstdc++.a(stdexcept.o)
                0x02036d38                std::runtime_error::~runtime_error()
 .text._ZNSt11logic_errorD2Ev
                0x02036dac       0x64 d:/nburn/gcc-m68k/bin/../lib/gcc/m68k-elf/4.2.1/../../../../m68k-elf/lib/m5208\libstdc++.a(stdexcept.o)
                0x02036dac                std::logic_error::~logic_error()
 .text._ZNSt11logic_errorD0Ev
                0x02036e10       0x74 d:/nburn/gcc-m68k/bin/../lib/gcc/m68k-elf/4.2.1/../../../../m68k-elf/lib/m5208\libstdc++.a(stdexcept.o)
                0x02036e10                std::logic_error::~logic_error()
 .text.__cxa_rethrow
                0x02036e84       0x7c d:/nburn/gcc-m68k/bin/../lib/gcc/m68k-elf/4.2.1/../../../../m68k-elf/lib/m5208\libstdc++.a(eh_throw.o)
                0x02036e84                __cxa_rethrow
 .text.__cxa_throw
                0x02036f00       0x6c d:/nburn/gcc-m68k/bin/../lib/gcc/m68k-elf/4.2.1/../../../../m68k-elf/lib/m5208\libstdc++.a(eh_throw.o)
                0x02036f00                __cxa_throw
 .text._Z23__gxx_exception_cleanup19_Unwind_Reason_CodeP17_Unwind_Exception
                0x02036f6c       0x62 d:/nburn/gcc-m68k/bin/../lib/gcc/m68k-elf/4.2.1/../../../../m68k-elf/lib/m5208\libstdc++.a(eh_throw.o)
 .text._ZSt15set_new_handlerPFvvE
                0x02036fce       0x18 d:/nburn/gcc-m68k/bin/../lib/gcc/m68k-elf/4.2.1/../../../../m68k-elf/lib/m5208\libstdc++.a(new_handler.o)
                0x02036fce                std::set_new_handler(void (*)())
 .text._ZNKSt9bad_alloc4whatEv
                0x02036fe6        0xe d:/nburn/gcc-m68k/bin/../lib/gcc/m68k-elf/4.2.1/../../../../m68k-elf/lib/m5208\libstdc++.a(new_handler.o)
                0x02036fe6                std::bad_alloc::what() const
 .text._ZNSt9bad_allocD0Ev
                0x02036ff4       0x2a d:/nburn/gcc-m68k/bin/../lib/gcc/m68k-elf/4.2.1/../../../../m68k-elf/lib/m5208\libstdc++.a(new_handler.o)
                0x02036ff4                std::bad_alloc::~bad_alloc()
 .text._ZNSt9bad_allocD1Ev
                0x0203701e       0x16 d:/nburn/gcc-m68k/bin/../lib/gcc/m68k-elf/4.2.1/../../../../m68k-elf/lib/m5208\libstdc++.a(new_handler.o)
                0x0203701e                std::bad_alloc::~bad_alloc()
 .text._ZNSt9bad_allocD2Ev
                0x02037034       0x16 d:/nburn/gcc-m68k/bin/../lib/gcc/m68k-elf/4.2.1/../../../../m68k-elf/lib/m5208\libstdc++.a(new_handler.o)
                0x02037034                std::bad_alloc::~bad_alloc()
 .text.__cxa_get_globals_fast
                0x0203704a        0xe d:/nburn/gcc-m68k/bin/../lib/gcc/m68k-elf/4.2.1/../../../../m68k-elf/lib/m5208\libstdc++.a(eh_globals.o)
                0x0203704a                __cxa_get_globals_fast
 .text.__cxa_get_globals
                0x02037058        0xe d:/nburn/gcc-m68k/bin/../lib/gcc/m68k-elf/4.2.1/../../../../m68k-elf/lib/m5208\libstdc++.a(eh_globals.o)
                0x02037058                __cxa_get_globals
 .text._ZNKSt9exception4whatEv
                0x02037066        0xe d:/nburn/gcc-m68k/bin/../lib/gcc/m68k-elf/4.2.1/../../../../m68k-elf/lib/m5208\libstdc++.a(eh_exception.o)
                0x02037066                std::exception::what() const
 .text._ZNKSt13bad_exception4whatEv
                0x02037074        0xe d:/nburn/gcc-m68k/bin/../lib/gcc/m68k-elf/4.2.1/../../../../m68k-elf/lib/m5208\libstdc++.a(eh_exception.o)
                0x02037074                std::bad_exception::what() const
 .text._ZNSt9exceptionD0Ev
                0x02037082       0x16 d:/nburn/gcc-m68k/bin/../lib/gcc/m68k-elf/4.2.1/../../../../m68k-elf/lib/m5208\libstdc++.a(eh_exception.o)
                0x02037082                std::exception::~exception()
 .text._ZNSt9exceptionD1Ev
                0x02037098       0x12 d:/nburn/gcc-m68k/bin/../lib/gcc/m68k-elf/4.2.1/../../../../m68k-elf/lib/m5208\libstdc++.a(eh_exception.o)
                0x02037098                std::exception::~exception()
 .text._ZNSt9exceptionD2Ev
                0x020370aa       0x12 d:/nburn/gcc-m68k/bin/../lib/gcc/m68k-elf/4.2.1/../../../../m68k-elf/lib/m5208\libstdc++.a(eh_exception.o)
                0x020370aa                std::exception::~exception()
 .text._ZNSt13bad_exceptionD0Ev
                0x020370bc       0x2a d:/nburn/gcc-m68k/bin/../lib/gcc/m68k-elf/4.2.1/../../../../m68k-elf/lib/m5208\libstdc++.a(eh_exception.o)
                0x020370bc                std::bad_exception::~bad_exception()
 .text._ZNSt13bad_exceptionD1Ev
                0x020370e6       0x16 d:/nburn/gcc-m68k/bin/../lib/gcc/m68k-elf/4.2.1/../../../../m68k-elf/lib/m5208\libstdc++.a(eh_exception.o)
                0x020370e6                std::bad_exception::~bad_exception()
 .text._ZNSt13bad_exceptionD2Ev
                0x020370fc       0x16 d:/nburn/gcc-m68k/bin/../lib/gcc/m68k-elf/4.2.1/../../../../m68k-elf/lib/m5208\libstdc++.a(eh_exception.o)
                0x020370fc                std::bad_exception::~bad_exception()
 .text.__cxa_get_exception_ptr
                0x02037112       0x10 d:/nburn/gcc-m68k/bin/../lib/gcc/m68k-elf/4.2.1/../../../../m68k-elf/lib/m5208\libstdc++.a(eh_catch.o)
                0x02037112                __cxa_get_exception_ptr
 .text._ZSt18uncaught_exceptionv
                0x02037122       0x1a d:/nburn/gcc-m68k/bin/../lib/gcc/m68k-elf/4.2.1/../../../../m68k-elf/lib/m5208\libstdc++.a(eh_catch.o)
                0x02037122                std::uncaught_exception()
 .text.__cxa_end_catch
                0x0203713c       0x9a d:/nburn/gcc-m68k/bin/../lib/gcc/m68k-elf/4.2.1/../../../../m68k-elf/lib/m5208\libstdc++.a(eh_catch.o)
                0x0203713c                __cxa_end_catch
 .text.__cxa_begin_catch
                0x020371d6       0x90 d:/nburn/gcc-m68k/bin/../lib/gcc/m68k-elf/4.2.1/../../../../m68k-elf/lib/m5208\libstdc++.a(eh_catch.o)
                0x020371d6                __cxa_begin_catch
 .text._ZSt13set_terminatePFvvE
                0x02037266       0x18 d:/nburn/gcc-m68k/bin/../lib/gcc/m68k-elf/4.2.1/../../../../m68k-elf/lib/m5208\libstdc++.a(eh_terminate.o)
                0x02037266                std::set_terminate(void (*)())
 .text._ZSt14set_unexpectedPFvvE
                0x0203727e       0x18 d:/nburn/gcc-m68k/bin/../lib/gcc/m68k-elf/4.2.1/../../../../m68k-elf/lib/m5208\libstdc++.a(eh_terminate.o)
                0x0203727e                std::set_unexpected(void (*)())
 .text._ZN10__cxxabiv111__terminateEPFvvE
                0x02037296       0x32 d:/nburn/gcc-m68k/bin/../lib/gcc/m68k-elf/4.2.1/../../../../m68k-elf/lib/m5208\libstdc++.a(eh_terminate.o)
                0x02037296                __cxxabiv1::__terminate(void (*)())
 .text._ZSt9terminatev
                0x020372c8       0x10 d:/nburn/gcc-m68k/bin/../lib/gcc/m68k-elf/4.2.1/../../../../m68k-elf/lib/m5208\libstdc++.a(eh_terminate.o)
                0x020372c8                std::terminate()
 .text._ZN10__cxxabiv112__unexpectedEPFvvE
                0x020372d8       0x10 d:/nburn/gcc-m68k/bin/../lib/gcc/m68k-elf/4.2.1/../../../../m68k-elf/lib/m5208\libstdc++.a(eh_terminate.o)
                0x020372d8                __cxxabiv1::__unexpected(void (*)())
 .text._ZSt10unexpectedv
                0x020372e8       0x10 d:/nburn/gcc-m68k/bin/../lib/gcc/m68k-elf/4.2.1/../../../../m68k-elf/lib/m5208\libstdc++.a(eh_terminate.o)
                0x020372e8                std::unexpected()
 .text._ZNKSt10bad_typeid4whatEv
                0x020372f8        0xe d:/nburn/gcc-m68k/bin/../lib/gcc/m68k-elf/4.2.1/../../../../m68k-elf/lib/m5208\libstdc++.a(bad_typeid.o)
                0x020372f8                std::bad_typeid::what() const
 .text._ZNSt10bad_typeidD0Ev
                0x02037306       0x2a d:/nburn/gcc-m68k/bin/../lib/gcc/m68k-elf/4.2.1/../../../../m68k-elf/lib/m5208\libstdc++.a(bad_typeid.o)
                0x02037306                std::bad_typeid::~bad_typeid()
 .text._ZNSt10bad_typeidD1Ev
                0x02037330       0x16 d:/nburn/gcc-m68k/bin/../lib/gcc/m68k-elf/4.2.1/../../../../m68k-elf/lib/m5208\libstdc++.a(bad_typeid.o)
                0x02037330                std::bad_typeid::~bad_typeid()
 .text._ZNSt10bad_typeidD2Ev
                0x02037346       0x16 d:/nburn/gcc-m68k/bin/../lib/gcc/m68k-elf/4.2.1/../../../../m68k-elf/lib/m5208\libstdc++.a(bad_typeid.o)
                0x02037346                std::bad_typeid::~bad_typeid()
 .text.__cxa_call_terminate
                0x0203735c       0x42 d:/nburn/gcc-m68k/bin/../lib/gcc/m68k-elf/4.2.1/../../../../m68k-elf/lib/m5208\libstdc++.a(eh_call.o)
                0x0203735c                __cxa_call_terminate
 .text._ZNK10__cxxabiv117__class_type_info11__do_upcastEPKS0_PPv
                0x0203739e       0x68 d:/nburn/gcc-m68k/bin/../lib/gcc/m68k-elf/4.2.1/../../../../m68k-elf/lib/m5208\libstdc++.a(class_type_info.o)
                0x0203739e                __cxxabiv1::__class_type_info::__do_upcast(__cxxabiv1::__class_type_info const*, void**) const
 .text._ZNK10__cxxabiv117__class_type_info20__do_find_public_srcElPKvPKS0_S2_
                0x02037406       0x1a d:/nburn/gcc-m68k/bin/../lib/gcc/m68k-elf/4.2.1/../../../../m68k-elf/lib/m5208\libstdc++.a(class_type_info.o)
                0x02037406                __cxxabiv1::__class_type_info::__do_find_public_src(long, void const*, __cxxabiv1::__class_type_info const*, void const*) const
 .text._ZN10__cxxabiv117__class_type_infoD0Ev
                0x02037420       0x2a d:/nburn/gcc-m68k/bin/../lib/gcc/m68k-elf/4.2.1/../../../../m68k-elf/lib/m5208\libstdc++.a(class_type_info.o)
                0x02037420                __cxxabiv1::__class_type_info::~__class_type_info()
 .text._ZN10__cxxabiv117__class_type_infoD1Ev
                0x0203744a       0x16 d:/nburn/gcc-m68k/bin/../lib/gcc/m68k-elf/4.2.1/../../../../m68k-elf/lib/m5208\libstdc++.a(class_type_info.o)
                0x0203744a                __cxxabiv1::__class_type_info::~__class_type_info()
 .text._ZN10__cxxabiv117__class_type_infoD2Ev
                0x02037460       0x16 d:/nburn/gcc-m68k/bin/../lib/gcc/m68k-elf/4.2.1/../../../../m68k-elf/lib/m5208\libstdc++.a(class_type_info.o)
                0x02037460                __cxxabiv1::__class_type_info::~__class_type_info()
 .text._ZNK10__cxxabiv117__class_type_info10__do_catchEPKSt9type_infoPPvj
                0x02037476       0x58 d:/nburn/gcc-m68k/bin/../lib/gcc/m68k-elf/4.2.1/../../../../m68k-elf/lib/m5208\libstdc++.a(class_type_info.o)
                0x02037476                __cxxabiv1::__class_type_info::__do_catch(std::type_info const*, void**, unsigned int) const
 .text._ZNK10__cxxabiv117__class_type_info11__do_upcastEPKS0_PKvRNS0_15__upcast_resultE
                0x020374ce       0x40 d:/nburn/gcc-m68k/bin/../lib/gcc/m68k-elf/4.2.1/../../../../m68k-elf/lib/m5208\libstdc++.a(class_type_info.o)
                0x020374ce                __cxxabiv1::__class_type_info::__do_upcast(__cxxabiv1::__class_type_info const*, void const*, __cxxabiv1::__class_type_info::__upcast_result&) const
 .text._ZNK10__cxxabiv117__class_type_info12__do_dyncastElNS0_10__sub_kindEPKS0_PKvS3_S5_RNS0_16__dyncast_resultE
                0x0203750e       0x56 d:/nburn/gcc-m68k/bin/../lib/gcc/m68k-elf/4.2.1/../../../../m68k-elf/lib/m5208\libstdc++.a(class_type_info.o)
                0x0203750e                __cxxabiv1::__class_type_info::__do_dyncast(long, __cxxabiv1::__class_type_info::__sub_kind, __cxxabiv1::__class_type_info const*, void const*, __cxxabiv1::__class_type_info const*, void const*, __cxxabiv1::__class_type_info::__dyncast_result&) const
 .text._ZNKSt8bad_cast4whatEv
                0x02037564        0xe d:/nburn/gcc-m68k/bin/../lib/gcc/m68k-elf/4.2.1/../../../../m68k-elf/lib/m5208\libstdc++.a(bad_cast.o)
                0x02037564                std::bad_cast::what() const
 .text._ZNSt8bad_castD0Ev
                0x02037572       0x2a d:/nburn/gcc-m68k/bin/../lib/gcc/m68k-elf/4.2.1/../../../../m68k-elf/lib/m5208\libstdc++.a(bad_cast.o)
                0x02037572                std::bad_cast::~bad_cast()
 .text._ZNSt8bad_castD1Ev
                0x0203759c       0x16 d:/nburn/gcc-m68k/bin/../lib/gcc/m68k-elf/4.2.1/../../../../m68k-elf/lib/m5208\libstdc++.a(bad_cast.o)
                0x0203759c                std::bad_cast::~bad_cast()
 .text._ZNSt8bad_castD2Ev
                0x020375b2       0x16 d:/nburn/gcc-m68k/bin/../lib/gcc/m68k-elf/4.2.1/../../../../m68k-elf/lib/m5208\libstdc++.a(bad_cast.o)
                0x020375b2                std::bad_cast::~bad_cast()
 .text._ZNK10__cxxabiv120__si_class_type_info11__do_upcastEPKNS_17__class_type_infoEPKvRNS1_15__upcast_resultE
                0x020375c8       0x66 d:/nburn/gcc-m68k/bin/../lib/gcc/m68k-elf/4.2.1/../../../../m68k-elf/lib/m5208\libstdc++.a(si_class_type_info.o)
                0x020375c8                __cxxabiv1::__si_class_type_info::__do_upcast(__cxxabiv1::__class_type_info const*, void const*, __cxxabiv1::__class_type_info::__upcast_result&) const
 .text._ZN10__cxxabiv120__si_class_type_infoD0Ev
                0x0203762e       0x2a d:/nburn/gcc-m68k/bin/../lib/gcc/m68k-elf/4.2.1/../../../../m68k-elf/lib/m5208\libstdc++.a(si_class_type_info.o)
                0x0203762e                __cxxabiv1::__si_class_type_info::~__si_class_type_info()
 .text._ZN10__cxxabiv120__si_class_type_infoD1Ev
                0x02037658       0x16 d:/nburn/gcc-m68k/bin/../lib/gcc/m68k-elf/4.2.1/../../../../m68k-elf/lib/m5208\libstdc++.a(si_class_type_info.o)
                0x02037658                __cxxabiv1::__si_class_type_info::~__si_class_type_info()
 .text._ZN10__cxxabiv120__si_class_type_infoD2Ev
                0x0203766e       0x16 d:/nburn/gcc-m68k/bin/../lib/gcc/m68k-elf/4.2.1/../../../../m68k-elf/lib/m5208\libstdc++.a(si_class_type_info.o)
                0x0203766e                __cxxabiv1::__si_class_type_info::~__si_class_type_info()
 .text._ZNK10__cxxabiv120__si_class_type_info20__do_find_public_srcElPKvPKNS_17__class_type_infoES2_
                0x02037684       0x3e d:/nburn/gcc-m68k/bin/../lib/gcc/m68k-elf/4.2.1/../../../../m68k-elf/lib/m5208\libstdc++.a(si_class_type_info.o)
                0x02037684                __cxxabiv1::__si_class_type_info::__do_find_public_src(long, void const*, __cxxabiv1::__class_type_info const*, void const*) const
 .text._ZNK10__cxxabiv120__si_class_type_info12__do_dyncastElNS_17__class_type_info10__sub_kindEPKS1_PKvS4_S6_RNS1_16__dyncast_resultE
                0x020376c2       0xc4 d:/nburn/gcc-m68k/bin/../lib/gcc/m68k-elf/4.2.1/../../../../m68k-elf/lib/m5208\libstdc++.a(si_class_type_info.o)
                0x020376c2                __cxxabiv1::__si_class_type_info::__do_dyncast(long, __cxxabiv1::__class_type_info::__sub_kind, __cxxabiv1::__class_type_info const*, void const*, __cxxabiv1::__class_type_info const*, void const*, __cxxabiv1::__class_type_info::__dyncast_result&) const
 .text._ZN9__gnu_cxx27__verbose_terminate_handlerEv
                0x02037786      0x1f0 d:/nburn/gcc-m68k/bin/../lib/gcc/m68k-elf/4.2.1/../../../../m68k-elf/lib/m5208\libstdc++.a(vterminate.o)
                0x02037786                __gnu_cxx::__verbose_terminate_handler()
 .text._ZNKSt9type_info14__is_pointer_pEv
                0x02037976        0xa d:/nburn/gcc-m68k/bin/../lib/gcc/m68k-elf/4.2.1/../../../../m68k-elf/lib/m5208\libstdc++.a(tinfo.o)
                0x02037976                std::type_info::__is_pointer_p() const
 .text._ZNKSt9type_info15__is_function_pEv
                0x02037980        0xa d:/nburn/gcc-m68k/bin/../lib/gcc/m68k-elf/4.2.1/../../../../m68k-elf/lib/m5208\libstdc++.a(tinfo.o)
                0x02037980                std::type_info::__is_function_p() const
 .text._ZNKSt9type_info10__do_catchEPKS_PPvj
                0x0203798a       0x22 d:/nburn/gcc-m68k/bin/../lib/gcc/m68k-elf/4.2.1/../../../../m68k-elf/lib/m5208\libstdc++.a(tinfo.o)
                0x0203798a                std::type_info::__do_catch(std::type_info const*, void**, unsigned int) const
 .text._ZNKSt9type_info11__do_upcastEPKN10__cxxabiv117__class_type_infoEPPv
                0x020379ac        0xa d:/nburn/gcc-m68k/bin/../lib/gcc/m68k-elf/4.2.1/../../../../m68k-elf/lib/m5208\libstdc++.a(tinfo.o)
                0x020379ac                std::type_info::__do_upcast(__cxxabiv1::__class_type_info const*, void**) const
 .text._ZNSt9type_infoD0Ev
                0x020379b6       0x16 d:/nburn/gcc-m68k/bin/../lib/gcc/m68k-elf/4.2.1/../../../../m68k-elf/lib/m5208\libstdc++.a(tinfo.o)
                0x020379b6                std::type_info::~type_info()
 .text._ZNSt9type_infoD1Ev
                0x020379cc       0x12 d:/nburn/gcc-m68k/bin/../lib/gcc/m68k-elf/4.2.1/../../../../m68k-elf/lib/m5208\libstdc++.a(tinfo.o)
                0x020379cc                std::type_info::~type_info()
 .text._ZNSt9type_infoD2Ev
                0x020379de       0x12 d:/nburn/gcc-m68k/bin/../lib/gcc/m68k-elf/4.2.1/../../../../m68k-elf/lib/m5208\libstdc++.a(tinfo.o)
                0x020379de                std::type_info::~type_info()
 .text.__cxa_current_exception_type
                0x020379f0       0x1e d:/nburn/gcc-m68k/bin/../lib/gcc/m68k-elf/4.2.1/../../../../m68k-elf/lib/m5208\libstdc++.a(eh_type.o)
                0x020379f0                __cxa_current_exception_type
                0x02037a10                . = ALIGN (0x10)
 *fill*         0x02037a0e        0x2 00
 *(.eh_frame)
 .eh_frame      0x02037a10        0x0 d:/nburn/gcc-m68k/bin/../lib/gcc/m68k-elf/4.2.1/m5208/crtbegin.o
 .eh_frame      0x02037a10     0x16d4 d:/nburn/gcc-m68k/bin/../lib/gcc/m68k-elf/4.2.1/../../../../m68k-elf/lib/m5208\libstdc++.a(string-inst.o)
 .eh_frame      0x020390e4      0x1e4 d:/nburn/gcc-m68k/bin/../lib/gcc/m68k-elf/4.2.1/../../../../m68k-elf/lib/m5208\libstdc++.a(eh_personality.o)
 .eh_frame      0x020392c8       0x34 d:/nburn/gcc-m68k/bin/../lib/gcc/m68k-elf/4.2.1/../../../../m68k-elf/lib/m5208\libstdc++.a(eh_alloc.o)
                                 0x50 (size before relaxing)
 .eh_frame      0x020392fc      0x2e4 d:/nburn/gcc-m68k/bin/../lib/gcc/m68k-elf/4.2.1/../../../../m68k-elf/lib/m5208\libstdc++.a(functexcept.o)
                                0x300 (size before relaxing)
 .eh_frame      0x020395e0       0x50 d:/nburn/gcc-m68k/bin/../lib/gcc/m68k-elf/4.2.1/../../../../m68k-elf/lib/m5208\libstdc++.a(ios_failure.o)
                                 0x6c (size before relaxing)
 .eh_frame      0x02039630      0x288 d:/nburn/gcc-m68k/bin/../lib/gcc/m68k-elf/4.2.1/../../../../m68k-elf/lib/m5208\libstdc++.a(stdexcept.o)
                                0x2a4 (size before relaxing)
 .eh_frame      0x020398b8       0x88 d:/nburn/gcc-m68k/bin/../lib/gcc/m68k-elf/4.2.1/../../../../m68k-elf/lib/m5208\libstdc++.a(eh_throw.o)
 .eh_frame      0x02039940       0x50 d:/nburn/gcc-m68k/bin/../lib/gcc/m68k-elf/4.2.1/../../../../m68k-elf/lib/m5208\libstdc++.a(eh_catch.o)
                                 0x6c (size before relaxing)
 .eh_frame      0x02039990       0x88 d:/nburn/gcc-m68k/bin/../lib/gcc/m68k-elf/4.2.1/../../../../m68k-elf/lib/m5208\libstdc++.a(eh_terminate.o)
                                 0xa4 (size before relaxing)
 .eh_frame      0x02039a18       0x28 d:/nburn/gcc-m68k/bin/../lib/gcc/m68k-elf/4.2.1/../../../../m68k-elf/lib/m5208\libstdc++.a(eh_call.o)
                                 0x44 (size before relaxing)
 .eh_frame      0x02039a40       0x60 d:/nburn/gcc-m68k/bin/../lib/gcc/m68k-elf/4.2.1/../../../../m68k-elf/lib/m5208\libstdc++.a(class_type_info.o)
                                 0x7c (size before relaxing)
 .eh_frame      0x02039aa0       0x68 d:/nburn/gcc-m68k/bin/../lib/gcc/m68k-elf/4.2.1/../../../../m68k-elf/lib/m5208\libstdc++.a(si_class_type_info.o)
                                 0x84 (size before relaxing)
 .eh_frame      0x02039b08       0x60 d:/nburn/gcc-m68k/bin/../lib/gcc/m68k-elf/4.2.1/../../../../m68k-elf/lib/m5208\libstdc++.a(vterminate.o)
                                 0x7c (size before relaxing)
 .eh_frame      0x02039b68      0x2d0 d:/nburn/gcc-m68k/bin/../lib/gcc/m68k-elf/4.2.1/m5208\libgcc.a(unwind-dw2.o)
 .eh_frame      0x02039e38      0x13c d:/nburn/gcc-m68k/bin/../lib/gcc/m68k-elf/4.2.1/m5208\libgcc.a(unwind-dw2-fde.o)
                                0x150 (size before relaxing)
 .eh_frame      0x02039f74       0x2c d:/nburn/gcc-m68k/bin/../lib/gcc/m68k-elf/4.2.1/m5208\libgcc.a(_udivdi3.o)
                                 0x40 (size before relaxing)
 .eh_frame      0x02039fa0       0x2c d:/nburn/gcc-m68k/bin/../lib/gcc/m68k-elf/4.2.1/m5208\libgcc.a(_umoddi3.o)
                                 0x40 (size before relaxing)
 .eh_frame      0x02039fcc        0x4 d:/nburn/gcc-m68k/bin/../lib/gcc/m68k-elf/4.2.1/m5208/crtend.o
                0x02039fd0                . = ALIGN (0x10)
 *fill*         0x02039fd0        0x0 00
 *(.gnu.linkonce.t.*)
                0x02039fd0                . = ALIGN (0x4)
                0x02039fd0                __CTOR_LIST__ = .
 *(.ctors)
 .ctors         0x02039fd0        0x4 d:/nburn/gcc-m68k/bin/../lib/gcc/m68k-elf/4.2.1/m5208/crtbegin.o
 .ctors         0x02039fd4        0x4 main.o
 .ctors         0x02039fd8        0x4 D:\nburn\lib\NetBurner.a(ip.o)
 .ctors         0x02039fdc        0x4 D:\nburn\lib\NetBurner.a(buffers.o)
 .ctors         0x02039fe0        0x4 D:\nburn\lib\NetBurner.a(tcp.o)
 .ctors         0x02039fe4        0x4 D:\nburn\lib\MOD5270.a(serial.o)
 .ctors         0x02039fe8        0x4 d:/nburn/gcc-m68k/bin/../lib/gcc/m68k-elf/4.2.1/../../../../m68k-elf/lib/m5208\libstdc++.a(eh_alloc.o)
 .ctors         0x02039fec        0x4 d:/nburn/gcc-m68k/bin/../lib/gcc/m68k-elf/4.2.1/m5208/crtend.o
                0x02039ff0                __CTOR_END__ = .
                0x02039ff0        0x4 LONG 0x0
                0x02039ff4                __CTOR_END__ = .
                0x02039ff4                __DTOR_LIST__ = .
                0x02039ff4                ___DTOR_LIST__ = .
                0x02039ff4        0x4 LONG 0x2 (((__DTOR_END__ - __DTOR_LIST__) / 0x4) - 0x2)
 *(.dtors)
 .dtors         0x02039ff8        0x4 d:/nburn/gcc-m68k/bin/../lib/gcc/m68k-elf/4.2.1/m5208/crtbegin.o
 .dtors         0x02039ffc        0x4 d:/nburn/gcc-m68k/bin/../lib/gcc/m68k-elf/4.2.1/m5208/crtend.o
                0x0203a000        0x4 LONG 0x0
                0x0203a004                __DTOR_END__ = .
 *(.rodata)
 .rodata        0x0203a004        0x2 main.o
 .rodata        0x0203a006      0x108 D:\nburn\lib\NetBurner.a(ucos.o)
                0x0203a00e                FAKE_OSUnMapTbl
                0x0203a006                FAKE_OSMapTbl
 .rodata        0x0203a10e       0xb8 D:\nburn\lib\NetBurner.a(utils.o)
 *fill*         0x0203a1c6        0xa 00
 .rodata        0x0203a1d0        0x4 D:\nburn\lib\NetBurner.a(buffers.o)
 .rodata        0x0203a1d4        0x2 D:\nburn\lib\NetBurner.a(udp.o)
 .rodata        0x0203a1d6        0xd D:\nburn\lib\NetBurner.a(tcp.o)
 .rodata        0x0203a1e3        0x2 D:\nburn\lib\NetBurner.a(ntpclient.o)
 *fill*         0x0203a1e5        0x1 00
 .rodata        0x0203a1e6      0x400 D:\nburn\lib\MOD5270.a(emulticast.o)
 .rodata        0x0203a5e6      0x5de d:/nburn/gcc-m68k/bin/../lib/gcc/m68k-elf/4.2.1/../../../../m68k-elf/lib/m5208\libstdc++.a(cp-demangle.o)
 .rodata        0x0203abc4       0x39 d:/nburn/gcc-m68k/bin/../lib/gcc/m68k-elf/4.2.1/../../../../m68k-elf/lib/m5208\libc.a(lib_a-asctime_r.o)
 *fill*         0x0203abfd        0x1 00
 .rodata        0x0203abfe        0x4 d:/nburn/gcc-m68k/bin/../lib/gcc/m68k-elf/4.2.1/../../../../m68k-elf/lib/m5208\libc.a(lib_a-impure.o)
                0x0203abfe                _global_impure_ptr
 .rodata        0x0203ac02       0x68 d:/nburn/gcc-m68k/bin/../lib/gcc/m68k-elf/4.2.1/../../../../m68k-elf/lib/m5208\libc.a(lib_a-mktm_r.o)
 .rodata        0x0203ac6a       0x20 d:/nburn/gcc-m68k/bin/../lib/gcc/m68k-elf/4.2.1/../../../../m68k-elf/lib/m5208\libc.a(lib_a-vfiprintf.o)
 .rodata        0x0203ac8a       0x20 d:/nburn/gcc-m68k/bin/../lib/gcc/m68k-elf/4.2.1/../../../../m68k-elf/lib/m5208\libc.a(lib_a-vfprintf.o)
 .rodata        0x0203acaa       0x22 d:/nburn/gcc-m68k/bin/../lib/gcc/m68k-elf/4.2.1/../../../../m68k-elf/lib/m5208\libc.a(lib_a-vfscanf.o)
 .rodata        0x0203accc      0x101 d:/nburn/gcc-m68k/bin/../lib/gcc/m68k-elf/4.2.1/../../../../m68k-elf/lib/m5208\libc.a(lib_a-ctype_.o)
                0x0203accc                _ctype_
 *fill*         0x0203adcd        0x1 00
 .rodata        0x0203adce       0x34 d:/nburn/gcc-m68k/bin/../lib/gcc/m68k-elf/4.2.1/../../../../m68k-elf/lib/m5208\libc.a(lib_a-locale.o)
 .rodata        0x0203ae02      0x124 d:/nburn/gcc-m68k/bin/../lib/gcc/m68k-elf/4.2.1/../../../../m68k-elf/lib/m5208\libc.a(lib_a-mprec.o)
                0x0203aef2                __mprec_tinytens
                0x0203ae02                __mprec_tens
                0x0203aeca                __mprec_bigtens
 .rodata        0x0203af26       0x28 d:/nburn/gcc-m68k/bin/../lib/gcc/m68k-elf/4.2.1/../../../../m68k-elf/lib/m5208\libc.a(lib_a-strtod.o)
 *(.rodata.*)
 .rodata.str1.1
                0x0203af4e      0x7fc main.o
                                0x813 (size before relaxing)
 .rodata.str1.1
                0x0203b74a       0x11 D:\nburn\lib\MOD5270.a(bsp.o)
 .rodata.str1.1
                0x0203b75b        0x5 D:\nburn\lib\NetBurner.a(ucos.o)
 .rodata.str1.1
                0x0203b760        0x3 D:\nburn\lib\NetBurner.a(fileio.o)
                                  0x6 (size before relaxing)
 .rodata.str1.1
                0x0203b763       0x39 D:\nburn\lib\NetBurner.a(tzsetchar.o)
                                 0x4b (size before relaxing)
 .rodata.str1.1
                0x0203b79c        0x5 D:\nburn\lib\NetBurner.a(main.o)
 .rodata.str1.1
                0x0203b7a1      0x167 D:\nburn\lib\NetBurner.a(utils.o)
                                0x17b (size before relaxing)
 .rodata.str1.1
                0x0203b908      0x215 D:\nburn\lib\NetBurner.a(ip.o)
                                0x217 (size before relaxing)
 .rodata.str1.1
                0x0203bb1d       0x68 D:\nburn\lib\NetBurner.a(buffers.o)
                                 0x70 (size before relaxing)
 .rodata.str1.1
                0x0203bb85       0x50 D:\nburn\lib\NetBurner.a(arp.o)
 .rodata.str1.1
                0x0203bbd5       0x11 D:\nburn\lib\NetBurner.a(udp.o)
 .rodata.str1.1
                0x0203bbe6      0x38f D:\nburn\lib\NetBurner.a(tcp.o)
                                0x392 (size before relaxing)
 .rodata.str1.1
                0x0203bf75       0x2c D:\nburn\lib\NetBurner.a(dhcpc.o)
                                 0x2f (size before relaxing)
 .rodata.str1.1
                0x0203bfa1       0x1e D:\nburn\lib\NetBurner.a(ntpclient.o)
                                 0x2d (size before relaxing)
 .rodata.str1.1
                0x0203bfbf       0xa2 D:\nburn\lib\NetBurner.a(taskmon.o)
                                 0xa7 (size before relaxing)
 .rodata.str1.1
                0x0203c061       0xc1 D:\nburn\lib\NetBurner.a(system.o)
                                 0xcd (size before relaxing)
 .rodata.str1.1
                0x0203c122      0x15a D:\nburn\lib\MOD5270.a(serial.o)
 .rodata.str1.1
                0x0203c27c        0xe D:\nburn\lib\MOD5270.a(ethernet.o)
 .rodata.str1.1
                0x0203c28a      0x45c D:\nburn\lib\MOD5270.a(etherprint.o)
                                0x476 (size before relaxing)
 .rodata.str1.1
                0x0203c6e6      0x147 d:/nburn/gcc-m68k/bin/../lib/gcc/m68k-elf/4.2.1/../../../../m68k-elf/lib/m5208\libstdc++.a(string-inst.o)
 *fill*         0x0203c82d        0x1 00
 .rodata._ZNSs4nposE
                0x0203c82e        0x4 d:/nburn/gcc-m68k/bin/../lib/gcc/m68k-elf/4.2.1/../../../../m68k-elf/lib/m5208\libstdc++.a(string-inst.o)
                0x0203c82e                std::string::npos
 .rodata._ZNSs4_Rep11_S_max_sizeE
                0x0203c832        0x4 d:/nburn/gcc-m68k/bin/../lib/gcc/m68k-elf/4.2.1/../../../../m68k-elf/lib/m5208\libstdc++.a(string-inst.o)
                0x0203c832                std::string::_Rep::_S_max_size
 .rodata._ZNSs4_Rep11_S_terminalE
                0x0203c836        0x1 d:/nburn/gcc-m68k/bin/../lib/gcc/m68k-elf/4.2.1/../../../../m68k-elf/lib/m5208\libstdc++.a(string-inst.o)
                0x0203c836                std::string::_Rep::_S_terminal
 *fill*         0x0203c837        0x1 00
 .rodata._ZTISt15underflow_error
                0x0203c838        0xc d:/nburn/gcc-m68k/bin/../lib/gcc/m68k-elf/4.2.1/../../../../m68k-elf/lib/m5208\libstdc++.a(functexcept.o)
                0x0203c838                typeinfo for std::underflow_error
 .rodata._ZTSSt15underflow_error
                0x0203c844       0x14 d:/nburn/gcc-m68k/bin/../lib/gcc/m68k-elf/4.2.1/../../../../m68k-elf/lib/m5208\libstdc++.a(functexcept.o)
                0x0203c844                typeinfo name for std::underflow_error
 .rodata._ZTVSt15underflow_error
                0x0203c858       0x14 d:/nburn/gcc-m68k/bin/../lib/gcc/m68k-elf/4.2.1/../../../../m68k-elf/lib/m5208\libstdc++.a(functexcept.o)
                0x0203c858                vtable for std::underflow_error
 .rodata._ZTISt14overflow_error
                0x0203c86c        0xc d:/nburn/gcc-m68k/bin/../lib/gcc/m68k-elf/4.2.1/../../../../m68k-elf/lib/m5208\libstdc++.a(functexcept.o)
                0x0203c86c                typeinfo for std::overflow_error
 .rodata._ZTSSt14overflow_error
                0x0203c878       0x13 d:/nburn/gcc-m68k/bin/../lib/gcc/m68k-elf/4.2.1/../../../../m68k-elf/lib/m5208\libstdc++.a(functexcept.o)
                0x0203c878                typeinfo name for std::overflow_error
 *fill*         0x0203c88b        0x1 00
 .rodata._ZTVSt14overflow_error
                0x0203c88c       0x14 d:/nburn/gcc-m68k/bin/../lib/gcc/m68k-elf/4.2.1/../../../../m68k-elf/lib/m5208\libstdc++.a(functexcept.o)
                0x0203c88c                vtable for std::overflow_error
 .rodata._ZTISt11range_error
                0x0203c8a0        0xc d:/nburn/gcc-m68k/bin/../lib/gcc/m68k-elf/4.2.1/../../../../m68k-elf/lib/m5208\libstdc++.a(functexcept.o)
                0x0203c8a0                typeinfo for std::range_error
 .rodata._ZTSSt11range_error
                0x0203c8ac       0x10 d:/nburn/gcc-m68k/bin/../lib/gcc/m68k-elf/4.2.1/../../../../m68k-elf/lib/m5208\libstdc++.a(functexcept.o)
                0x0203c8ac                typeinfo name for std::range_error
 .rodata._ZTVSt11range_error
                0x0203c8bc       0x14 d:/nburn/gcc-m68k/bin/../lib/gcc/m68k-elf/4.2.1/../../../../m68k-elf/lib/m5208\libstdc++.a(functexcept.o)
                0x0203c8bc                vtable for std::range_error
 .rodata._ZTISt12out_of_range
                0x0203c8d0        0xc d:/nburn/gcc-m68k/bin/../lib/gcc/m68k-elf/4.2.1/../../../../m68k-elf/lib/m5208\libstdc++.a(functexcept.o)
                0x0203c8d0                typeinfo for std::out_of_range
 .rodata._ZTSSt12out_of_range
                0x0203c8dc       0x11 d:/nburn/gcc-m68k/bin/../lib/gcc/m68k-elf/4.2.1/../../../../m68k-elf/lib/m5208\libstdc++.a(functexcept.o)
                0x0203c8dc                typeinfo name for std::out_of_range
 *fill*         0x0203c8ed        0x3 00
 .rodata._ZTVSt12out_of_range
                0x0203c8f0       0x14 d:/nburn/gcc-m68k/bin/../lib/gcc/m68k-elf/4.2.1/../../../../m68k-elf/lib/m5208\libstdc++.a(functexcept.o)
                0x0203c8f0                vtable for std::out_of_range
 .rodata._ZTISt12length_error
                0x0203c904        0xc d:/nburn/gcc-m68k/bin/../lib/gcc/m68k-elf/4.2.1/../../../../m68k-elf/lib/m5208\libstdc++.a(functexcept.o)
                0x0203c904                typeinfo for std::length_error
 .rodata._ZTSSt12length_error
                0x0203c910       0x11 d:/nburn/gcc-m68k/bin/../lib/gcc/m68k-elf/4.2.1/../../../../m68k-elf/lib/m5208\libstdc++.a(functexcept.o)
                0x0203c910                typeinfo name for std::length_error
 *fill*         0x0203c921        0x3 00
 .rodata._ZTVSt12length_error
                0x0203c924       0x14 d:/nburn/gcc-m68k/bin/../lib/gcc/m68k-elf/4.2.1/../../../../m68k-elf/lib/m5208\libstdc++.a(functexcept.o)
                0x0203c924                vtable for std::length_error
 .rodata._ZTISt16invalid_argument
                0x0203c938        0xc d:/nburn/gcc-m68k/bin/../lib/gcc/m68k-elf/4.2.1/../../../../m68k-elf/lib/m5208\libstdc++.a(functexcept.o)
                0x0203c938                typeinfo for std::invalid_argument
 .rodata._ZTSSt16invalid_argument
                0x0203c944       0x15 d:/nburn/gcc-m68k/bin/../lib/gcc/m68k-elf/4.2.1/../../../../m68k-elf/lib/m5208\libstdc++.a(functexcept.o)
                0x0203c944                typeinfo name for std::invalid_argument
 *fill*         0x0203c959        0x3 00
 .rodata._ZTVSt16invalid_argument
                0x0203c95c       0x14 d:/nburn/gcc-m68k/bin/../lib/gcc/m68k-elf/4.2.1/../../../../m68k-elf/lib/m5208\libstdc++.a(functexcept.o)
                0x0203c95c                vtable for std::invalid_argument
 .rodata._ZTISt12domain_error
                0x0203c970        0xc d:/nburn/gcc-m68k/bin/../lib/gcc/m68k-elf/4.2.1/../../../../m68k-elf/lib/m5208\libstdc++.a(functexcept.o)
                0x0203c970                typeinfo for std::domain_error
 .rodata._ZTSSt12domain_error
                0x0203c97c       0x11 d:/nburn/gcc-m68k/bin/../lib/gcc/m68k-elf/4.2.1/../../../../m68k-elf/lib/m5208\libstdc++.a(functexcept.o)
                0x0203c97c                typeinfo name for std::domain_error
 *fill*         0x0203c98d        0x3 00
 .rodata._ZTVSt12domain_error
                0x0203c990       0x14 d:/nburn/gcc-m68k/bin/../lib/gcc/m68k-elf/4.2.1/../../../../m68k-elf/lib/m5208\libstdc++.a(functexcept.o)
                0x0203c990                vtable for std::domain_error
 .rodata._ZTVNSt8ios_base7failureE
                0x0203c9a4       0x14 d:/nburn/gcc-m68k/bin/../lib/gcc/m68k-elf/4.2.1/../../../../m68k-elf/lib/m5208\libstdc++.a(ios_failure.o)
                0x0203c9a4                vtable for std::ios_base::failure
 .rodata._ZTSNSt8ios_base7failureE
                0x0203c9b8       0x16 d:/nburn/gcc-m68k/bin/../lib/gcc/m68k-elf/4.2.1/../../../../m68k-elf/lib/m5208\libstdc++.a(ios_failure.o)
                0x0203c9b8                typeinfo name for std::ios_base::failure
 .rodata._ZTINSt8ios_base7failureE
                0x0203c9ce        0xc d:/nburn/gcc-m68k/bin/../lib/gcc/m68k-elf/4.2.1/../../../../m68k-elf/lib/m5208\libstdc++.a(ios_failure.o)
                0x0203c9ce                typeinfo for std::ios_base::failure
 *fill*         0x0203c9da        0x2 00
 .rodata._ZTVSt13runtime_error
                0x0203c9dc       0x14 d:/nburn/gcc-m68k/bin/../lib/gcc/m68k-elf/4.2.1/../../../../m68k-elf/lib/m5208\libstdc++.a(stdexcept.o)
                0x0203c9dc                vtable for std::runtime_error
 .rodata._ZTVSt11logic_error
                0x0203c9f0       0x14 d:/nburn/gcc-m68k/bin/../lib/gcc/m68k-elf/4.2.1/../../../../m68k-elf/lib/m5208\libstdc++.a(stdexcept.o)
                0x0203c9f0                vtable for std::logic_error
 .rodata._ZTSSt13runtime_error
                0x0203ca04       0x12 d:/nburn/gcc-m68k/bin/../lib/gcc/m68k-elf/4.2.1/../../../../m68k-elf/lib/m5208\libstdc++.a(stdexcept.o)
                0x0203ca04                typeinfo name for std::runtime_error
 .rodata._ZTISt13runtime_error
                0x0203ca16        0xc d:/nburn/gcc-m68k/bin/../lib/gcc/m68k-elf/4.2.1/../../../../m68k-elf/lib/m5208\libstdc++.a(stdexcept.o)
                0x0203ca16                typeinfo for std::runtime_error
 .rodata._ZTSSt11logic_error
                0x0203ca22       0x10 d:/nburn/gcc-m68k/bin/../lib/gcc/m68k-elf/4.2.1/../../../../m68k-elf/lib/m5208\libstdc++.a(stdexcept.o)
                0x0203ca22                typeinfo name for std::logic_error
 .rodata._ZTISt11logic_error
                0x0203ca32        0xc d:/nburn/gcc-m68k/bin/../lib/gcc/m68k-elf/4.2.1/../../../../m68k-elf/lib/m5208\libstdc++.a(stdexcept.o)
                0x0203ca32                typeinfo for std::logic_error
 .rodata.str1.1
                0x0203ca3e        0xf d:/nburn/gcc-m68k/bin/../lib/gcc/m68k-elf/4.2.1/../../../../m68k-elf/lib/m5208\libstdc++.a(new_handler.o)
 .rodata._ZSt7nothrow
                0x0203ca4d        0x1 d:/nburn/gcc-m68k/bin/../lib/gcc/m68k-elf/4.2.1/../../../../m68k-elf/lib/m5208\libstdc++.a(new_handler.o)
                0x0203ca4d                std::nothrow
 *fill*         0x0203ca4e        0x2 00
 .rodata._ZTVSt9bad_alloc
                0x0203ca50       0x14 d:/nburn/gcc-m68k/bin/../lib/gcc/m68k-elf/4.2.1/../../../../m68k-elf/lib/m5208\libstdc++.a(new_handler.o)
                0x0203ca50                vtable for std::bad_alloc
 .rodata._ZTSSt9bad_alloc
                0x0203ca64        0xd d:/nburn/gcc-m68k/bin/../lib/gcc/m68k-elf/4.2.1/../../../../m68k-elf/lib/m5208\libstdc++.a(new_handler.o)
                0x0203ca64                typeinfo name for std::bad_alloc
 *fill*         0x0203ca71        0x1 00
 .rodata._ZTISt9bad_alloc
                0x0203ca72        0xc d:/nburn/gcc-m68k/bin/../lib/gcc/m68k-elf/4.2.1/../../../../m68k-elf/lib/m5208\libstdc++.a(new_handler.o)
                0x0203ca72                typeinfo for std::bad_alloc
 .rodata.str1.1
                0x0203ca7e       0x22 d:/nburn/gcc-m68k/bin/../lib/gcc/m68k-elf/4.2.1/../../../../m68k-elf/lib/m5208\libstdc++.a(eh_exception.o)
 .rodata._ZTVSt13bad_exception
                0x0203caa0       0x14 d:/nburn/gcc-m68k/bin/../lib/gcc/m68k-elf/4.2.1/../../../../m68k-elf/lib/m5208\libstdc++.a(eh_exception.o)
                0x0203caa0                vtable for std::bad_exception
 .rodata._ZTVSt9exception
                0x0203cab4       0x14 d:/nburn/gcc-m68k/bin/../lib/gcc/m68k-elf/4.2.1/../../../../m68k-elf/lib/m5208\libstdc++.a(eh_exception.o)
                0x0203cab4                vtable for std::exception
 .rodata._ZTSSt13bad_exception
                0x0203cac8       0x12 d:/nburn/gcc-m68k/bin/../lib/gcc/m68k-elf/4.2.1/../../../../m68k-elf/lib/m5208\libstdc++.a(eh_exception.o)
                0x0203cac8                typeinfo name for std::bad_exception
 .rodata._ZTISt13bad_exception
                0x0203cada        0xc d:/nburn/gcc-m68k/bin/../lib/gcc/m68k-elf/4.2.1/../../../../m68k-elf/lib/m5208\libstdc++.a(eh_exception.o)
                0x0203cada                typeinfo for std::bad_exception
 .rodata._ZTSSt9exception
                0x0203cae6        0xd d:/nburn/gcc-m68k/bin/../lib/gcc/m68k-elf/4.2.1/../../../../m68k-elf/lib/m5208\libstdc++.a(eh_exception.o)
                0x0203cae6                typeinfo name for std::exception
 *fill*         0x0203caf3        0x1 00
 .rodata._ZTISt9exception
                0x0203caf4        0x8 d:/nburn/gcc-m68k/bin/../lib/gcc/m68k-elf/4.2.1/../../../../m68k-elf/lib/m5208\libstdc++.a(eh_exception.o)
                0x0203caf4                typeinfo for std::exception
 .rodata.str1.1
                0x0203cafc       0x10 d:/nburn/gcc-m68k/bin/../lib/gcc/m68k-elf/4.2.1/../../../../m68k-elf/lib/m5208\libstdc++.a(bad_typeid.o)
 .rodata._ZTVSt10bad_typeid
                0x0203cb0c       0x14 d:/nburn/gcc-m68k/bin/../lib/gcc/m68k-elf/4.2.1/../../../../m68k-elf/lib/m5208\libstdc++.a(bad_typeid.o)
                0x0203cb0c                vtable for std::bad_typeid
 .rodata._ZTSSt10bad_typeid
                0x0203cb20        0xf d:/nburn/gcc-m68k/bin/../lib/gcc/m68k-elf/4.2.1/../../../../m68k-elf/lib/m5208\libstdc++.a(bad_typeid.o)
                0x0203cb20                typeinfo name for std::bad_typeid
 *fill*         0x0203cb2f        0x1 00
 .rodata._ZTISt10bad_typeid
                0x0203cb30        0xc d:/nburn/gcc-m68k/bin/../lib/gcc/m68k-elf/4.2.1/../../../../m68k-elf/lib/m5208\libstdc++.a(bad_typeid.o)
                0x0203cb30                typeinfo for std::bad_typeid
 .rodata._ZTVN10__cxxabiv117__class_type_infoE
                0x0203cb3c       0x2c d:/nburn/gcc-m68k/bin/../lib/gcc/m68k-elf/4.2.1/../../../../m68k-elf/lib/m5208\libstdc++.a(class_type_info.o)
                0x0203cb3c                vtable for __cxxabiv1::__class_type_info
 .rodata._ZTSN10__cxxabiv117__class_type_infoE
                0x0203cb68       0x22 d:/nburn/gcc-m68k/bin/../lib/gcc/m68k-elf/4.2.1/../../../../m68k-elf/lib/m5208\libstdc++.a(class_type_info.o)
                0x0203cb68                typeinfo name for __cxxabiv1::__class_type_info
 .rodata._ZTIN10__cxxabiv117__class_type_infoE
                0x0203cb8a        0xc d:/nburn/gcc-m68k/bin/../lib/gcc/m68k-elf/4.2.1/../../../../m68k-elf/lib/m5208\libstdc++.a(class_type_info.o)
                0x0203cb8a                typeinfo for __cxxabiv1::__class_type_info
 .rodata.str1.1
                0x0203cb96        0xe d:/nburn/gcc-m68k/bin/../lib/gcc/m68k-elf/4.2.1/../../../../m68k-elf/lib/m5208\libstdc++.a(bad_cast.o)
 .rodata._ZTVSt8bad_cast
                0x0203cba4       0x14 d:/nburn/gcc-m68k/bin/../lib/gcc/m68k-elf/4.2.1/../../../../m68k-elf/lib/m5208\libstdc++.a(bad_cast.o)
                0x0203cba4                vtable for std::bad_cast
 .rodata._ZTSSt8bad_cast
                0x0203cbb8        0xc d:/nburn/gcc-m68k/bin/../lib/gcc/m68k-elf/4.2.1/../../../../m68k-elf/lib/m5208\libstdc++.a(bad_cast.o)
                0x0203cbb8                typeinfo name for std::bad_cast
 .rodata._ZTISt8bad_cast
                0x0203cbc4        0xc d:/nburn/gcc-m68k/bin/../lib/gcc/m68k-elf/4.2.1/../../../../m68k-elf/lib/m5208\libstdc++.a(bad_cast.o)
                0x0203cbc4                typeinfo for std::bad_cast
 .rodata._ZTVN10__cxxabiv120__si_class_type_infoE
                0x0203cbd0       0x2c d:/nburn/gcc-m68k/bin/../lib/gcc/m68k-elf/4.2.1/../../../../m68k-elf/lib/m5208\libstdc++.a(si_class_type_info.o)
                0x0203cbd0                vtable for __cxxabiv1::__si_class_type_info
 .rodata._ZTSN10__cxxabiv120__si_class_type_infoE
                0x0203cbfc       0x25 d:/nburn/gcc-m68k/bin/../lib/gcc/m68k-elf/4.2.1/../../../../m68k-elf/lib/m5208\libstdc++.a(si_class_type_info.o)
                0x0203cbfc                typeinfo name for __cxxabiv1::__si_class_type_info
 *fill*         0x0203cc21        0x1 00
 .rodata._ZTIN10__cxxabiv120__si_class_type_infoE
                0x0203cc22        0xc d:/nburn/gcc-m68k/bin/../lib/gcc/m68k-elf/4.2.1/../../../../m68k-elf/lib/m5208\libstdc++.a(si_class_type_info.o)
                0x0203cc22                typeinfo for __cxxabiv1::__si_class_type_info
 .rodata.str1.1
                0x0203cc2e       0x8c d:/nburn/gcc-m68k/bin/../lib/gcc/m68k-elf/4.2.1/../../../../m68k-elf/lib/m5208\libstdc++.a(vterminate.o)
 .rodata.str1.1
                0x0203ccba      0x45d d:/nburn/gcc-m68k/bin/../lib/gcc/m68k-elf/4.2.1/../../../../m68k-elf/lib/m5208\libstdc++.a(cp-demangle.o)
                                0x509 (size before relaxing)
 *fill*         0x0203d117        0x1 00
 .rodata._ZTVSt9type_info
                0x0203d118       0x20 d:/nburn/gcc-m68k/bin/../lib/gcc/m68k-elf/4.2.1/../../../../m68k-elf/lib/m5208\libstdc++.a(tinfo.o)
                0x0203d118                vtable for std::type_info
 .rodata._ZTSSt9type_info
                0x0203d138        0xd d:/nburn/gcc-m68k/bin/../lib/gcc/m68k-elf/4.2.1/../../../../m68k-elf/lib/m5208\libstdc++.a(tinfo.o)
                0x0203d138                typeinfo name for std::type_info
 *fill*         0x0203d145        0x1 00
 .rodata._ZTISt9type_info
                0x0203d146        0x8 d:/nburn/gcc-m68k/bin/../lib/gcc/m68k-elf/4.2.1/../../../../m68k-elf/lib/m5208\libstdc++.a(tinfo.o)
                0x0203d146                typeinfo for std::type_info
 .rodata.str1.1
                0x0203d14e       0x20 d:/nburn/gcc-m68k/bin/../lib/gcc/m68k-elf/4.2.1/../../../../m68k-elf/lib/m5208\libc.a(lib_a-asctime_r.o)
 .rodata.str1.1
                0x0203d16e        0x2 d:/nburn/gcc-m68k/bin/../lib/gcc/m68k-elf/4.2.1/../../../../m68k-elf/lib/m5208\libc.a(lib_a-impure.o)
 .rodata.str1.1
                0x00000000        0x2 d:/nburn/gcc-m68k/bin/../lib/gcc/m68k-elf/4.2.1/../../../../m68k-elf/lib/m5208\libc.a(lib_a-puts.o)
 .rodata.str1.1
                0x00000000        0x4 d:/nburn/gcc-m68k/bin/../lib/gcc/m68k-elf/4.2.1/../../../../m68k-elf/lib/m5208\libc.a(lib_a-tzvars.o)
 .rodata.str1.1
                0x0203d170       0x43 d:/nburn/gcc-m68k/bin/../lib/gcc/m68k-elf/4.2.1/../../../../m68k-elf/lib/m5208\libc.a(lib_a-vfiprintf.o)
 .rodata.str1.1
                0x0203d1b3       0x10 d:/nburn/gcc-m68k/bin/../lib/gcc/m68k-elf/4.2.1/../../../../m68k-elf/lib/m5208\libc.a(lib_a-vfprintf.o)
                                 0x57 (size before relaxing)
 .rodata.str1.1
                0x0203d1c3        0x5 d:/nburn/gcc-m68k/bin/../lib/gcc/m68k-elf/4.2.1/../../../../m68k-elf/lib/m5208\libc.a(lib_a-vfscanf.o)
 .rodata.str1.1
                0x0203d1c8       0x1d d:/nburn/gcc-m68k/bin/../lib/gcc/m68k-elf/4.2.1/../../../../m68k-elf/lib/m5208\libc.a(lib_a-wctomb_r.o)
 .rodata.str1.1
                0x0203d1e5        0xd d:/nburn/gcc-m68k/bin/../lib/gcc/m68k-elf/4.2.1/../../../../m68k-elf/lib/m5208\libc.a(lib_a-dtoa.o)
                                  0xf (size before relaxing)
 .rodata.str1.1
                0x0203d1f2        0xb d:/nburn/gcc-m68k/bin/../lib/gcc/m68k-elf/4.2.1/../../../../m68k-elf/lib/m5208\libc.a(lib_a-locale.o)
                                 0x10 (size before relaxing)
 .rodata.str1.1
                0x00000000        0x1 d:/nburn/gcc-m68k/bin/../lib/gcc/m68k-elf/4.2.1/../../../../m68k-elf/lib/m5208\libc.a(lib_a-mbrtowc.o)
 .rodata.str1.1
                0x00000000        0xb d:/nburn/gcc-m68k/bin/../lib/gcc/m68k-elf/4.2.1/../../../../m68k-elf/lib/m5208\libc.a(lib_a-strtod.o)
                                  0xc (size before relaxing)
 .rodata.str1.1
                0x0203d1fd        0xb d:/nburn/gcc-m68k/bin/../lib/gcc/m68k-elf/4.2.1/../../../../m68k-elf/lib/m5208\libc.a(lib_a-gdtoa-gethex.o)
                                 0x19 (size before relaxing)
 *(.gnu.linkonce.*)
 *(.gcc_except_table)
 .gcc_except_table
                0x0203d208       0xa9 d:/nburn/gcc-m68k/bin/../lib/gcc/m68k-elf/4.2.1/../../../../m68k-elf/lib/m5208\libstdc++.a(string-inst.o)
 *fill*         0x0203d2b1        0x3 00
 .gcc_except_table
                0x0203d2b4       0x48 d:/nburn/gcc-m68k/bin/../lib/gcc/m68k-elf/4.2.1/../../../../m68k-elf/lib/m5208\libstdc++.a(eh_personality.o)
 .gcc_except_table
                0x0203d2fc       0x15 d:/nburn/gcc-m68k/bin/../lib/gcc/m68k-elf/4.2.1/../../../../m68k-elf/lib/m5208\libstdc++.a(eh_alloc.o)
 .gcc_except_table
                0x0203d311       0xaf d:/nburn/gcc-m68k/bin/../lib/gcc/m68k-elf/4.2.1/../../../../m68k-elf/lib/m5208\libstdc++.a(functexcept.o)
 .gcc_except_table
                0x0203d3c0       0x2d d:/nburn/gcc-m68k/bin/../lib/gcc/m68k-elf/4.2.1/../../../../m68k-elf/lib/m5208\libstdc++.a(ios_failure.o)
 .gcc_except_table
                0x0203d3ed       0x30 d:/nburn/gcc-m68k/bin/../lib/gcc/m68k-elf/4.2.1/../../../../m68k-elf/lib/m5208\libstdc++.a(stdexcept.o)
 *fill*         0x0203d41d        0x3 00
 .gcc_except_table
                0x0203d420       0x11 d:/nburn/gcc-m68k/bin/../lib/gcc/m68k-elf/4.2.1/../../../../m68k-elf/lib/m5208\libstdc++.a(eh_catch.o)
 *fill*         0x0203d431        0x3 00
 .gcc_except_table
                0x0203d434       0x18 d:/nburn/gcc-m68k/bin/../lib/gcc/m68k-elf/4.2.1/../../../../m68k-elf/lib/m5208\libstdc++.a(eh_terminate.o)
 .gcc_except_table
                0x0203d44c       0x38 d:/nburn/gcc-m68k/bin/../lib/gcc/m68k-elf/4.2.1/../../../../m68k-elf/lib/m5208\libstdc++.a(vterminate.o)
                0x0203d484                . = ALIGN (0x4)
                0x0203d484                __INIT_SECTION__ = .
                0x0203d484        0x4 LONG 0x4e560000
 *(.init)
 .init          0x0203d488        0x6 d:/nburn/gcc-m68k/bin/../lib/gcc/m68k-elf/4.2.1/m5208/crtbegin.o
 .init          0x0203d48e        0x6 d:/nburn/gcc-m68k/bin/../lib/gcc/m68k-elf/4.2.1/m5208/crtend.o
                0x0203d494        0x2 SHORT 0x4e5e
                0x0203d496        0x2 SHORT 0x4e75
                0x0203d498                . = ALIGN (0x4)
                0x0203d498                __FINI_SECTION__ = .
                0x0203d498        0x4 LONG 0x4e560000
 *(.fini)
 .fini          0x0203d49c        0x6 d:/nburn/gcc-m68k/bin/../lib/gcc/m68k-elf/4.2.1/m5208/crtbegin.o
                0x0203d4a2        0x2 SHORT 0x4e5e
                0x0203d4a4        0x2 SHORT 0x4e75
 *(.lit)
                0x0203d4b0                . = ALIGN (0x10)
 *fill*         0x0203d4a6        0xa 00
                0x0203d4b0                _etext = .
                0x0203d4b0                etext = .

.data           0x0203d4b0      0x970
                0x0203d4b0                copy_start = .
 *(.shdata)
 *(.data)
 .data          0x0203d4b0        0x4 d:/nburn/gcc-m68k/bin/../lib/gcc/m68k-elf/4.2.1/../../../../m68k-elf/lib/m5208\nb-crt0.o
 .data          0x0203d4b4        0x8 d:/nburn/gcc-m68k/bin/../lib/gcc/m68k-elf/4.2.1/m5208/crtbegin.o
                0x0203d4b4                __dso_handle
 .data          0x0203d4bc       0x8a main.o
                0x0203d51e                TPHCD
                0x0203d51a                TSRD
                0x0203d4e4                testArrayChars
                0x0203d542                NLOW
                0x0203d4c0                testString
                0x0203d53e                HIGH
                0x0203d522                TPLCD
                0x0203d52e                DIVIDER
                0x0203d4c4                dow_str
                0x0203d536                INTSYSCLK
                0x0203d4bc                AppName
                0x0203d52a                EOCCD
                0x0203d526                MCLCD
                0x0203d516                MaxCount
                0x0203d532                PRESCALER
 *fill*         0x0203d546        0x2 00
 .data          0x0203d548        0x0 D:\nburn\lib\MOD5270.a(bsp.o)
 .data          0x0203d548        0x0 D:\nburn\lib\MOD5270.a(pins.o)
 .data          0x0203d548        0x0 D:\nburn\lib\NetBurner.a(ucosmcfa.o)
 .data          0x0203d548        0x0 D:\nburn\lib\NetBurner.a(ucosmcfc.o)
 .data          0x0203d548        0x0 D:\nburn\lib\NetBurner.a(ucos.o)
 .data          0x0203d548        0x0 D:\nburn\lib\NetBurner.a(ucosmain.o)
 .data          0x0203d548        0x0 D:\nburn\lib\NetBurner.a(fileio.o)
 .data          0x0203d548        0x0 D:\nburn\lib\NetBurner.a(tzsetchar.o)
 .data          0x0203d548        0x0 D:\nburn\lib\NetBurner.a(main.o)
 .data          0x0203d548        0x0 D:\nburn\lib\NetBurner.a(utils.o)
 .data          0x0203d548        0x0 D:\nburn\lib\NetBurner.a(ip.o)
 .data          0x0203d548        0x0 D:\nburn\lib\NetBurner.a(buffers.o)
 .data          0x0203d548        0x0 D:\nburn\lib\NetBurner.a(arp.o)
 .data          0x0203d548        0x0 D:\nburn\lib\NetBurner.a(dns.o)
 .data          0x0203d548        0x0 D:\nburn\lib\NetBurner.a(udp.o)
 .data          0x0203d548        0x0 D:\nburn\lib\NetBurner.a(tcp.o)
 .data          0x0203d548        0x0 D:\nburn\lib\NetBurner.a(iosys.o)
 .data          0x0203d548        0x0 D:\nburn\lib\NetBurner.a(dhcpc.o)
 .data          0x0203d548        0x0 D:\nburn\lib\NetBurner.a(nbtime.o)
 .data          0x0203d548       0x10 D:\nburn\lib\NetBurner.a(ntpclient.o)
                0x0203d548                NTP_POOL_Servers
 .data          0x0203d558        0x0 D:\nburn\lib\NetBurner.a(netinterface.o)
 .data          0x0203d558        0x0 D:\nburn\lib\NetBurner.a(taskmon.o)
 .data          0x0203d558        0x0 D:\nburn\lib\NetBurner.a(autoupdate.o)
 .data          0x0203d558        0x0 D:\nburn\lib\NetBurner.a(device.o)
 .data          0x0203d558        0x0 D:\nburn\lib\NetBurner.a(system.o)
 .data          0x0203d558        0x0 D:\nburn\lib\NetBurner.a(new_ops.o)
 .data          0x0203d558       0x20 D:\nburn\lib\MOD5270.a(ioboard.o)
 .data          0x0203d578        0x0 D:\nburn\lib\MOD5270.a(serial.o)
 .data          0x0203d578        0x2 D:\nburn\lib\MOD5270.a(ethernet.o)
                0x0203d578                wait
 *fill*         0x0203d57a        0x2 00
 .data          0x0203d57c        0x0 D:\nburn\lib\MOD5270.a(etherprint.o)
 .data          0x0203d57c        0x0 D:\nburn\lib\MOD5270.a(emulticast.o)
 .data          0x0203d57c        0x0 D:\nburn\lib\NetBurner.a(extraio.o)
 .data          0x0203d57c        0x0 d:/nburn/gcc-m68k/bin/../lib/gcc/m68k-elf/4.2.1/../../../../m68k-elf/lib/m5208\libstdc++.a(string-inst.o)
 .data          0x0203d57c        0x0 d:/nburn/gcc-m68k/bin/../lib/gcc/m68k-elf/4.2.1/../../../../m68k-elf/lib/m5208\libstdc++.a(del_op.o)
 .data          0x0203d57c        0x0 d:/nburn/gcc-m68k/bin/../lib/gcc/m68k-elf/4.2.1/../../../../m68k-elf/lib/m5208\libstdc++.a(eh_personality.o)
 .data          0x0203d57c        0x0 d:/nburn/gcc-m68k/bin/../lib/gcc/m68k-elf/4.2.1/../../../../m68k-elf/lib/m5208\libstdc++.a(eh_alloc.o)
 .data          0x0203d57c        0x0 d:/nburn/gcc-m68k/bin/../lib/gcc/m68k-elf/4.2.1/../../../../m68k-elf/lib/m5208\libstdc++.a(functexcept.o)
 .data          0x0203d57c        0x0 d:/nburn/gcc-m68k/bin/../lib/gcc/m68k-elf/4.2.1/../../../../m68k-elf/lib/m5208\libstdc++.a(ios_failure.o)
 .data          0x0203d57c        0x0 d:/nburn/gcc-m68k/bin/../lib/gcc/m68k-elf/4.2.1/../../../../m68k-elf/lib/m5208\libstdc++.a(stdexcept.o)
 .data          0x0203d57c        0x0 d:/nburn/gcc-m68k/bin/../lib/gcc/m68k-elf/4.2.1/../../../../m68k-elf/lib/m5208\libstdc++.a(eh_throw.o)
 .data          0x0203d57c        0x0 d:/nburn/gcc-m68k/bin/../lib/gcc/m68k-elf/4.2.1/../../../../m68k-elf/lib/m5208\libstdc++.a(new_handler.o)
 .data          0x0203d57c        0x0 d:/nburn/gcc-m68k/bin/../lib/gcc/m68k-elf/4.2.1/../../../../m68k-elf/lib/m5208\libstdc++.a(eh_globals.o)
 .data          0x0203d57c        0x0 d:/nburn/gcc-m68k/bin/../lib/gcc/m68k-elf/4.2.1/../../../../m68k-elf/lib/m5208\libstdc++.a(eh_exception.o)
 .data          0x0203d57c        0x0 d:/nburn/gcc-m68k/bin/../lib/gcc/m68k-elf/4.2.1/../../../../m68k-elf/lib/m5208\libstdc++.a(eh_catch.o)
 .data          0x0203d57c        0x0 d:/nburn/gcc-m68k/bin/../lib/gcc/m68k-elf/4.2.1/../../../../m68k-elf/lib/m5208\libstdc++.a(eh_terminate.o)
 .data          0x0203d57c        0x0 d:/nburn/gcc-m68k/bin/../lib/gcc/m68k-elf/4.2.1/../../../../m68k-elf/lib/m5208\libstdc++.a(bad_typeid.o)
 .data          0x0203d57c        0x0 d:/nburn/gcc-m68k/bin/../lib/gcc/m68k-elf/4.2.1/../../../../m68k-elf/lib/m5208\libstdc++.a(eh_call.o)
 .data          0x0203d57c        0x0 d:/nburn/gcc-m68k/bin/../lib/gcc/m68k-elf/4.2.1/../../../../m68k-elf/lib/m5208\libstdc++.a(class_type_info.o)
 .data          0x0203d57c        0x0 d:/nburn/gcc-m68k/bin/../lib/gcc/m68k-elf/4.2.1/../../../../m68k-elf/lib/m5208\libstdc++.a(eh_term_handler.o)
 .data          0x0203d57c        0x0 d:/nburn/gcc-m68k/bin/../lib/gcc/m68k-elf/4.2.1/../../../../m68k-elf/lib/m5208\libstdc++.a(bad_cast.o)
 .data          0x0203d57c        0x0 d:/nburn/gcc-m68k/bin/../lib/gcc/m68k-elf/4.2.1/../../../../m68k-elf/lib/m5208\libstdc++.a(eh_unex_handler.o)
 .data          0x0203d57c        0x0 d:/nburn/gcc-m68k/bin/../lib/gcc/m68k-elf/4.2.1/../../../../m68k-elf/lib/m5208\libstdc++.a(si_class_type_info.o)
 .data          0x0203d57c        0x0 d:/nburn/gcc-m68k/bin/../lib/gcc/m68k-elf/4.2.1/../../../../m68k-elf/lib/m5208\libstdc++.a(vterminate.o)
 .data          0x0203d57c        0x0 d:/nburn/gcc-m68k/bin/../lib/gcc/m68k-elf/4.2.1/../../../../m68k-elf/lib/m5208\libstdc++.a(cp-demangle.o)
 .data          0x0203d57c        0x0 d:/nburn/gcc-m68k/bin/../lib/gcc/m68k-elf/4.2.1/../../../../m68k-elf/lib/m5208\libstdc++.a(tinfo.o)
 .data          0x0203d57c        0x0 d:/nburn/gcc-m68k/bin/../lib/gcc/m68k-elf/4.2.1/../../../../m68k-elf/lib/m5208\libstdc++.a(eh_type.o)
 .data          0x0203d57c        0x0 d:/nburn/gcc-m68k/bin/../lib/gcc/m68k-elf/4.2.1/m5208\libgcc.a(_double.o)
 .data          0x0203d57c       0x1c d:/nburn/gcc-m68k/bin/../lib/gcc/m68k-elf/4.2.1/m5208\libgcc.a(_floatex.o)
                0x0203d57c                _fpCCR
 .data          0x0203d598        0x0 d:/nburn/gcc-m68k/bin/../lib/gcc/m68k-elf/4.2.1/m5208\libgcc.a(_ltdf2.o)
 .data          0x0203d598        0x0 d:/nburn/gcc-m68k/bin/../lib/gcc/m68k-elf/4.2.1/m5208\libgcc.a(_muldi3.o)
 .data          0x0203d598        0x0 d:/nburn/gcc-m68k/bin/../lib/gcc/m68k-elf/4.2.1/m5208\libgcc.a(_fixunsdfsi.o)
 .data          0x0203d598        0x0 d:/nburn/gcc-m68k/bin/../lib/gcc/m68k-elf/4.2.1/m5208\libgcc.a(fpgnulib.o)
 .data          0x0203d598        0x0 d:/nburn/gcc-m68k/bin/../lib/gcc/m68k-elf/4.2.1/m5208\libgcc.a(unwind-dw2.o)
 .data          0x0203d598        0x0 d:/nburn/gcc-m68k/bin/../lib/gcc/m68k-elf/4.2.1/m5208\libgcc.a(unwind-dw2-fde.o)
 .data          0x0203d598        0x0 d:/nburn/gcc-m68k/bin/../lib/gcc/m68k-elf/4.2.1/m5208\libgcc.a(_gedf2.o)
 .data          0x0203d598        0x0 d:/nburn/gcc-m68k/bin/../lib/gcc/m68k-elf/4.2.1/../../../../m68k-elf/lib/m5208\libc.a(lib_a-abort.o)
 .data          0x0203d598        0x0 d:/nburn/gcc-m68k/bin/../lib/gcc/m68k-elf/4.2.1/../../../../m68k-elf/lib/m5208\libc.a(lib_a-asctime.o)
 .data          0x0203d598        0x0 d:/nburn/gcc-m68k/bin/../lib/gcc/m68k-elf/4.2.1/../../../../m68k-elf/lib/m5208\libc.a(lib_a-asctime_r.o)
 .data          0x0203d598        0x0 d:/nburn/gcc-m68k/bin/../lib/gcc/m68k-elf/4.2.1/../../../../m68k-elf/lib/m5208\libc.a(lib_a-cxa_atexit.o)
 .data          0x0203d598        0x0 d:/nburn/gcc-m68k/bin/../lib/gcc/m68k-elf/4.2.1/../../../../m68k-elf/lib/m5208\libc.a(lib_a-errno.o)
 .data          0x0203d598        0x0 d:/nburn/gcc-m68k/bin/../lib/gcc/m68k-elf/4.2.1/../../../../m68k-elf/lib/m5208\libc.a(lib_a-fiprintf.o)
 .data          0x0203d598        0x0 d:/nburn/gcc-m68k/bin/../lib/gcc/m68k-elf/4.2.1/../../../../m68k-elf/lib/m5208\libc.a(lib_a-fputc.o)
 .data          0x0203d598        0x0 d:/nburn/gcc-m68k/bin/../lib/gcc/m68k-elf/4.2.1/../../../../m68k-elf/lib/m5208\libc.a(lib_a-fputs.o)
 .data          0x0203d598        0x0 d:/nburn/gcc-m68k/bin/../lib/gcc/m68k-elf/4.2.1/../../../../m68k-elf/lib/m5208\libc.a(lib_a-fvwrite.o)
 .data          0x0203d598        0x0 d:/nburn/gcc-m68k/bin/../lib/gcc/m68k-elf/4.2.1/../../../../m68k-elf/lib/m5208\libc.a(lib_a-fwrite.o)
 .data          0x0203d598        0x0 d:/nburn/gcc-m68k/bin/../lib/gcc/m68k-elf/4.2.1/../../../../m68k-elf/lib/m5208\libc.a(lib_a-getchar.o)
 .data          0x0203d598        0x0 d:/nburn/gcc-m68k/bin/../lib/gcc/m68k-elf/4.2.1/../../../../m68k-elf/lib/m5208\libc.a(lib_a-getc.o)
 .data          0x0203d598       0x3c d:/nburn/gcc-m68k/bin/../lib/gcc/m68k-elf/4.2.1/../../../../m68k-elf/lib/m5208\libc.a(lib_a-gettzinfo.o)
 .data          0x0203d5d4        0x0 d:/nburn/gcc-m68k/bin/../lib/gcc/m68k-elf/4.2.1/../../../../m68k-elf/lib/m5208\libc.a(lib_a-gmtime.o)
 .data          0x0203d5d4        0x0 d:/nburn/gcc-m68k/bin/../lib/gcc/m68k-elf/4.2.1/../../../../m68k-elf/lib/m5208\libc.a(lib_a-gmtime_r.o)
 .data          0x0203d5d4      0x3f6 d:/nburn/gcc-m68k/bin/../lib/gcc/m68k-elf/4.2.1/../../../../m68k-elf/lib/m5208\libc.a(lib_a-impure.o)
                0x0203d5d4                _impure_ptr
 *fill*         0x0203d9ca        0x2 00
 .data          0x0203d9cc        0x0 d:/nburn/gcc-m68k/bin/../lib/gcc/m68k-elf/4.2.1/../../../../m68k-elf/lib/m5208\libc.a(lib_a-iprintf.o)
 .data          0x0203d9cc        0x0 d:/nburn/gcc-m68k/bin/../lib/gcc/m68k-elf/4.2.1/../../../../m68k-elf/lib/m5208\libc.a(lib_a-lcltime_r.o)
 .data          0x0203d9cc        0x0 d:/nburn/gcc-m68k/bin/../lib/gcc/m68k-elf/4.2.1/../../../../m68k-elf/lib/m5208\libc.a(lib_a-malloc.o)
 .data          0x0203d9cc      0x410 d:/nburn/gcc-m68k/bin/../lib/gcc/m68k-elf/4.2.1/../../../../m68k-elf/lib/m5208\libc.a(lib_a-mallocr.o)
                0x0203ddd8                __malloc_sbrk_base
                0x0203d9cc                __malloc_av_
                0x0203ddd4                __malloc_trim_threshold
 .data          0x0203dddc        0x0 d:/nburn/gcc-m68k/bin/../lib/gcc/m68k-elf/4.2.1/../../../../m68k-elf/lib/m5208\libc.a(lib_a-memchr.o)
 .data          0x0203dddc        0x0 d:/nburn/gcc-m68k/bin/../lib/gcc/m68k-elf/4.2.1/../../../../m68k-elf/lib/m5208\libc.a(lib_a-memcmp.o)
 .data          0x0203dddc        0x0 d:/nburn/gcc-m68k/bin/../lib/gcc/m68k-elf/4.2.1/../../../../m68k-elf/lib/m5208\libc.a(lib_a-memmove.o)
 .data          0x0203dddc        0x0 d:/nburn/gcc-m68k/bin/../lib/gcc/m68k-elf/4.2.1/../../../../m68k-elf/lib/m5208\libc.a(lib_a-mktm_r.o)
 .data          0x0203dddc        0x0 d:/nburn/gcc-m68k/bin/../lib/gcc/m68k-elf/4.2.1/../../../../m68k-elf/lib/m5208\libc.a(lib_a-putc.o)
 .data          0x0203dddc        0x0 d:/nburn/gcc-m68k/bin/../lib/gcc/m68k-elf/4.2.1/../../../../m68k-elf/lib/m5208\libc.a(lib_a-puts.o)
 .data          0x0203dddc        0x0 d:/nburn/gcc-m68k/bin/../lib/gcc/m68k-elf/4.2.1/../../../../m68k-elf/lib/m5208\libc.a(lib_a-realloc.o)
 .data          0x0203dddc        0x0 d:/nburn/gcc-m68k/bin/../lib/gcc/m68k-elf/4.2.1/../../../../m68k-elf/lib/m5208\libc.a(lib_a-reallocr.o)
 .data          0x0203dddc        0x0 d:/nburn/gcc-m68k/bin/../lib/gcc/m68k-elf/4.2.1/../../../../m68k-elf/lib/m5208\libc.a(lib_a-rget.o)
 .data          0x0203dddc        0x0 d:/nburn/gcc-m68k/bin/../lib/gcc/m68k-elf/4.2.1/../../../../m68k-elf/lib/m5208\libc.a(lib_a-setvbuf.o)
 .data          0x0203dddc        0x0 d:/nburn/gcc-m68k/bin/../lib/gcc/m68k-elf/4.2.1/../../../../m68k-elf/lib/m5208\libc.a(lib_a-signal.o)
 .data          0x0203dddc        0x0 d:/nburn/gcc-m68k/bin/../lib/gcc/m68k-elf/4.2.1/../../../../m68k-elf/lib/m5208\libc.a(lib_a-signalr.o)
 .data          0x0203dddc        0x0 d:/nburn/gcc-m68k/bin/../lib/gcc/m68k-elf/4.2.1/../../../../m68k-elf/lib/m5208\libc.a(lib_a-siprintf.o)
 .data          0x0203dddc        0x0 d:/nburn/gcc-m68k/bin/../lib/gcc/m68k-elf/4.2.1/../../../../m68k-elf/lib/m5208\libc.a(lib_a-sprintf.o)
 .data          0x0203dddc        0x0 d:/nburn/gcc-m68k/bin/../lib/gcc/m68k-elf/4.2.1/../../../../m68k-elf/lib/m5208\libc.a(lib_a-sscanf.o)
 .data          0x0203dddc        0x0 d:/nburn/gcc-m68k/bin/../lib/gcc/m68k-elf/4.2.1/../../../../m68k-elf/lib/m5208\libc.a(lib_a-strcat.o)
 .data          0x0203dddc        0x0 d:/nburn/gcc-m68k/bin/../lib/gcc/m68k-elf/4.2.1/../../../../m68k-elf/lib/m5208\libc.a(lib_a-strcmp.o)
 .data          0x0203dddc        0x0 d:/nburn/gcc-m68k/bin/../lib/gcc/m68k-elf/4.2.1/../../../../m68k-elf/lib/m5208\libc.a(lib_a-strcpy.o)
 .data          0x0203dddc        0x0 d:/nburn/gcc-m68k/bin/../lib/gcc/m68k-elf/4.2.1/../../../../m68k-elf/lib/m5208\libc.a(lib_a-strlen.o)
 .data          0x0203dddc        0x0 d:/nburn/gcc-m68k/bin/../lib/gcc/m68k-elf/4.2.1/../../../../m68k-elf/lib/m5208\libc.a(lib_a-strncmp.o)
 .data          0x0203dddc        0x0 d:/nburn/gcc-m68k/bin/../lib/gcc/m68k-elf/4.2.1/../../../../m68k-elf/lib/m5208\libc.a(lib_a-strtoul.o)
 .data          0x0203dddc        0x8 d:/nburn/gcc-m68k/bin/../lib/gcc/m68k-elf/4.2.1/../../../../m68k-elf/lib/m5208\libc.a(lib_a-tzvars.o)
                0x0203dddc                _tzname
 .data          0x0203dde4        0x0 d:/nburn/gcc-m68k/bin/../lib/gcc/m68k-elf/4.2.1/../../../../m68k-elf/lib/m5208\libc.a(lib_a-vfiprintf.o)
 .data          0x0203dde4        0x0 d:/nburn/gcc-m68k/bin/../lib/gcc/m68k-elf/4.2.1/../../../../m68k-elf/lib/m5208\libc.a(lib_a-vfprintf.o)
 .data          0x0203dde4        0x0 d:/nburn/gcc-m68k/bin/../lib/gcc/m68k-elf/4.2.1/../../../../m68k-elf/lib/m5208\libc.a(lib_a-vfscanf.o)
 .data          0x0203dde4        0x0 d:/nburn/gcc-m68k/bin/../lib/gcc/m68k-elf/4.2.1/../../../../m68k-elf/lib/m5208\libc.a(lib_a-wbuf.o)
 .data          0x0203dde4        0x0 d:/nburn/gcc-m68k/bin/../lib/gcc/m68k-elf/4.2.1/../../../../m68k-elf/lib/m5208\libc.a(lib_a-wcrtomb.o)
 .data          0x0203dde4        0x0 d:/nburn/gcc-m68k/bin/../lib/gcc/m68k-elf/4.2.1/../../../../m68k-elf/lib/m5208\libc.a(lib_a-wcsrtombs.o)
 .data          0x0203dde4        0x0 d:/nburn/gcc-m68k/bin/../lib/gcc/m68k-elf/4.2.1/../../../../m68k-elf/lib/m5208\libc.a(lib_a-wctomb_r.o)
 .data          0x0203dde4        0x0 d:/nburn/gcc-m68k/bin/../lib/gcc/m68k-elf/4.2.1/../../../../m68k-elf/lib/m5208\libc.a(lib_a-wsetup.o)
 .data          0x0203dde4        0x0 d:/nburn/gcc-m68k/bin/../lib/gcc/m68k-elf/4.2.1/../../../../m68k-elf/lib/m5208\libc.a(lib_a-__atexit.o)
 .data          0x0203dde4        0x4 d:/nburn/gcc-m68k/bin/../lib/gcc/m68k-elf/4.2.1/../../../../m68k-elf/lib/m5208\libc.a(lib_a-ctype_.o)
                0x0203dde4                __ctype_ptr
 .data          0x0203dde8        0x0 d:/nburn/gcc-m68k/bin/../lib/gcc/m68k-elf/4.2.1/../../../../m68k-elf/lib/m5208\libc.a(lib_a-dtoa.o)
 .data          0x0203dde8        0x0 d:/nburn/gcc-m68k/bin/../lib/gcc/m68k-elf/4.2.1/../../../../m68k-elf/lib/m5208\libc.a(lib_a-fflush.o)
 .data          0x0203dde8        0x0 d:/nburn/gcc-m68k/bin/../lib/gcc/m68k-elf/4.2.1/../../../../m68k-elf/lib/m5208\libc.a(lib_a-findfp.o)
 .data          0x0203dde8        0x0 d:/nburn/gcc-m68k/bin/../lib/gcc/m68k-elf/4.2.1/../../../../m68k-elf/lib/m5208\libc.a(lib_a-fread.o)
 .data          0x0203dde8        0x0 d:/nburn/gcc-m68k/bin/../lib/gcc/m68k-elf/4.2.1/../../../../m68k-elf/lib/m5208\libc.a(lib_a-freer.o)
 .data          0x0203dde8        0x0 d:/nburn/gcc-m68k/bin/../lib/gcc/m68k-elf/4.2.1/../../../../m68k-elf/lib/m5208\libc.a(lib_a-fwalk.o)
 .data          0x0203dde8        0x0 d:/nburn/gcc-m68k/bin/../lib/gcc/m68k-elf/4.2.1/../../../../m68k-elf/lib/m5208\libc.a(lib_a-iswspace.o)
 .data          0x0203dde8       0x10 d:/nburn/gcc-m68k/bin/../lib/gcc/m68k-elf/4.2.1/../../../../m68k-elf/lib/m5208\libc.a(lib_a-locale.o)
                0x0203dde8                __mb_cur_max
                0x0203ddec                __lc_ctype
 .data          0x0203ddf8        0x0 d:/nburn/gcc-m68k/bin/../lib/gcc/m68k-elf/4.2.1/../../../../m68k-elf/lib/m5208\libc.a(lib_a-makebuf.o)
 .data          0x0203ddf8        0x0 d:/nburn/gcc-m68k/bin/../lib/gcc/m68k-elf/4.2.1/../../../../m68k-elf/lib/m5208\libc.a(lib_a-mbrtowc.o)
 .data          0x0203ddf8        0x0 d:/nburn/gcc-m68k/bin/../lib/gcc/m68k-elf/4.2.1/../../../../m68k-elf/lib/m5208\libc.a(lib_a-mbtowc_r.o)
 .data          0x0203ddf8        0x0 d:/nburn/gcc-m68k/bin/../lib/gcc/m68k-elf/4.2.1/../../../../m68k-elf/lib/m5208\libc.a(lib_a-mprec.o)
 .data          0x0203ddf8        0x0 d:/nburn/gcc-m68k/bin/../lib/gcc/m68k-elf/4.2.1/../../../../m68k-elf/lib/m5208\libc.a(lib_a-refill.o)
 .data          0x0203ddf8        0x0 d:/nburn/gcc-m68k/bin/../lib/gcc/m68k-elf/4.2.1/../../../../m68k-elf/lib/m5208\libc.a(lib_a-sccl.o)
 .data          0x0203ddf8        0x0 d:/nburn/gcc-m68k/bin/../lib/gcc/m68k-elf/4.2.1/../../../../m68k-elf/lib/m5208\libc.a(lib_a-sf_nan.o)
 .data          0x0203ddf8        0x0 d:/nburn/gcc-m68k/bin/../lib/gcc/m68k-elf/4.2.1/../../../../m68k-elf/lib/m5208\libc.a(lib_a-s_isinfd.o)
 .data          0x0203ddf8        0x0 d:/nburn/gcc-m68k/bin/../lib/gcc/m68k-elf/4.2.1/../../../../m68k-elf/lib/m5208\libc.a(lib_a-s_isnand.o)
 .data          0x0203ddf8        0x0 d:/nburn/gcc-m68k/bin/../lib/gcc/m68k-elf/4.2.1/../../../../m68k-elf/lib/m5208\libc.a(lib_a-stdio.o)
 .data          0x0203ddf8       0x28 d:/nburn/gcc-m68k/bin/../lib/gcc/m68k-elf/4.2.1/../../../../m68k-elf/lib/m5208\libc.a(lib_a-strtod.o)
 .data          0x0203de20        0x0 d:/nburn/gcc-m68k/bin/../lib/gcc/m68k-elf/4.2.1/../../../../m68k-elf/lib/m5208\libc.a(lib_a-strtoll_r.o)
 .data          0x0203de20        0x0 d:/nburn/gcc-m68k/bin/../lib/gcc/m68k-elf/4.2.1/../../../../m68k-elf/lib/m5208\libc.a(lib_a-strtol.o)
 .data          0x0203de20        0x0 d:/nburn/gcc-m68k/bin/../lib/gcc/m68k-elf/4.2.1/../../../../m68k-elf/lib/m5208\libc.a(lib_a-strtoull_r.o)
 .data          0x0203de20        0x0 d:/nburn/gcc-m68k/bin/../lib/gcc/m68k-elf/4.2.1/../../../../m68k-elf/lib/m5208\libc.a(lib_a-ungetc.o)
 .data          0x0203de20        0x0 d:/nburn/gcc-m68k/bin/../lib/gcc/m68k-elf/4.2.1/../../../../m68k-elf/lib/m5208\libc.a(lib_a-writer.o)
 .data          0x0203de20        0x0 d:/nburn/gcc-m68k/bin/../lib/gcc/m68k-elf/4.2.1/../../../../m68k-elf/lib/m5208\libc.a(lib_a-callocr.o)
 .data          0x0203de20        0x0 d:/nburn/gcc-m68k/bin/../lib/gcc/m68k-elf/4.2.1/../../../../m68k-elf/lib/m5208\libc.a(lib_a-closer.o)
 .data          0x0203de20        0x0 d:/nburn/gcc-m68k/bin/../lib/gcc/m68k-elf/4.2.1/../../../../m68k-elf/lib/m5208\libc.a(lib_a-fclose.o)
 .data          0x0203de20        0x0 d:/nburn/gcc-m68k/bin/../lib/gcc/m68k-elf/4.2.1/../../../../m68k-elf/lib/m5208\libc.a(lib_a-fstatr.o)
 .data          0x0203de20        0x0 d:/nburn/gcc-m68k/bin/../lib/gcc/m68k-elf/4.2.1/../../../../m68k-elf/lib/m5208\libc.a(lib_a-gdtoa-gethex.o)
 .data          0x0203de20        0x0 d:/nburn/gcc-m68k/bin/../lib/gcc/m68k-elf/4.2.1/../../../../m68k-elf/lib/m5208\libc.a(lib_a-gdtoa-hexnan.o)
 .data          0x0203de20        0x0 d:/nburn/gcc-m68k/bin/../lib/gcc/m68k-elf/4.2.1/../../../../m68k-elf/lib/m5208\libc.a(lib_a-lseekr.o)
 .data          0x0203de20        0x0 d:/nburn/gcc-m68k/bin/../lib/gcc/m68k-elf/4.2.1/../../../../m68k-elf/lib/m5208\libc.a(lib_a-readr.o)
 .data          0x0203de20        0x0 d:/nburn/gcc-m68k/bin/../lib/gcc/m68k-elf/4.2.1/m5208\libgcc.a(_eqdf2.o)
 .data          0x0203de20        0x0 d:/nburn/gcc-m68k/bin/../lib/gcc/m68k-elf/4.2.1/m5208\libgcc.a(_nedf2.o)
 .data          0x0203de20        0x0 d:/nburn/gcc-m68k/bin/../lib/gcc/m68k-elf/4.2.1/m5208\libgcc.a(_gtdf2.o)
 .data          0x0203de20        0x0 d:/nburn/gcc-m68k/bin/../lib/gcc/m68k-elf/4.2.1/m5208\libgcc.a(_ledf2.o)
 .data          0x0203de20        0x0 d:/nburn/gcc-m68k/bin/../lib/gcc/m68k-elf/4.2.1/m5208\libgcc.a(_nesf2.o)
 .data          0x0203de20        0x0 d:/nburn/gcc-m68k/bin/../lib/gcc/m68k-elf/4.2.1/m5208\libgcc.a(_gtsf2.o)
 .data          0x0203de20        0x0 d:/nburn/gcc-m68k/bin/../lib/gcc/m68k-elf/4.2.1/m5208\libgcc.a(_ltsf2.o)
 .data          0x0203de20        0x0 d:/nburn/gcc-m68k/bin/../lib/gcc/m68k-elf/4.2.1/m5208\libgcc.a(_udivdi3.o)
 .data          0x0203de20        0x0 d:/nburn/gcc-m68k/bin/../lib/gcc/m68k-elf/4.2.1/m5208\libgcc.a(_umoddi3.o)
 .data          0x0203de20        0x0 d:/nburn/gcc-m68k/bin/../lib/gcc/m68k-elf/4.2.1/m5208\libgcc.a(_float.o)
 .data          0x0203de20        0x0 d:/nburn/gcc-m68k/bin/../lib/gcc/m68k-elf/4.2.1/m5208/crtend.o
                0x0203de20                . = ALIGN (0x10)
                0x0203de20                _edata = .
                0x0203de20                copy_end = .

.jcr            0x0203de20        0x4
 .jcr           0x0203de20        0x0 d:/nburn/gcc-m68k/bin/../lib/gcc/m68k-elf/4.2.1/m5208/crtbegin.o
 .jcr           0x0203de20        0x4 d:/nburn/gcc-m68k/bin/../lib/gcc/m68k-elf/4.2.1/m5208/crtend.o

.data._ZN10__cxxabiv119__terminate_handlerE
                0x0203de24        0x4
 .data._ZN10__cxxabiv119__terminate_handlerE
                0x0203de24        0x4 d:/nburn/gcc-m68k/bin/../lib/gcc/m68k-elf/4.2.1/../../../../m68k-elf/lib/m5208\libstdc++.a(eh_term_handler.o)
                0x0203de24                __cxxabiv1::__terminate_handler

.data._ZN10__cxxabiv120__unexpected_handlerE
                0x0203de28        0x4
 .data._ZN10__cxxabiv120__unexpected_handlerE
                0x0203de28        0x4 d:/nburn/gcc-m68k/bin/../lib/gcc/m68k-elf/4.2.1/../../../../m68k-elf/lib/m5208\libstdc++.a(eh_unex_handler.o)
                0x0203de28                __cxxabiv1::__unexpected_handler

.bss            0x0203de30    0x75b30
                0x0203de30                . = ALIGN (0x4)
                0x0203de30                __bss_start = .
 *(.shbss)
 *(.bss)
 .bss           0x0203de30        0x0 d:/nburn/gcc-m68k/bin/../lib/gcc/m68k-elf/4.2.1/../../../../m68k-elf/lib/m5208\nb-crt0.o
 .bss           0x0203de30       0x1a d:/nburn/gcc-m68k/bin/../lib/gcc/m68k-elf/4.2.1/m5208/crtbegin.o
 *fill*         0x0203de4a        0x2 00
 .bss           0x0203de4c     0x2490 main.o
                0x020402b3                TPHCTS
                0x0204028e                TPHCT
                0x02040286                MCHCT
                0x02040244                testVar
                0x0204029e                MCLCT
                0x0203de4c                gPostBuf
                0x020402ae                MCHCTS
                0x020402d8                countUP
                0x0204026e                MCHCD
                0x02040238                PulseCount
                0x02040296                TPLCT
                0x0204026a                TSR
                0x0203e234                doPulseStack
                0x020402d0                NHIGH
                0x02040276                TPHC
                0x020402b8                TPLCTS
                0x0204023c                ntp_srvr_addr
                0x0204024d                Continuous
                0x02040234                uint32_counter
                0x020402bd                MCLCTS
                0x0204024c                AssignedDHCP
                0x0204027a                TPLC
                0x02040248                lastActivityHTML
                0x0204025c                SemTP
                0x020402c2                EOCCTS
                0x020402d4                LOW
                0x0204024e                SemPulse
                0x0204027e                MCLC
                0x02040282                EOCC
                0x02040240                TS1Count
                0x020402a6                EOCCT
                0x02040272                MCHC
                0x020402c8                CLOCKFREQ
 .bss           0x020402dc        0x0 D:\nburn\lib\MOD5270.a(bsp.o)
 .bss           0x020402dc        0x2 D:\nburn\lib\MOD5270.a(pins.o)
                0x020402dd                J2
                0x020402dc                J1
 *fill*         0x020402de        0x2 00
 .bss           0x020402e0        0x0 D:\nburn\lib\NetBurner.a(ucosmcfa.o)
 .bss           0x020402e0        0x0 D:\nburn\lib\NetBurner.a(ucosmcfc.o)
 .bss           0x020402e0        0x0 D:\nburn\lib\NetBurner.a(ucos.o)
 .bss           0x020402e0        0x0 D:\nburn\lib\NetBurner.a(ucosmain.o)
 .bss           0x020402e0        0x0 D:\nburn\lib\NetBurner.a(fileio.o)
 .bss           0x020402e0       0x1a D:\nburn\lib\NetBurner.a(tzsetchar.o)
 *fill*         0x020402fa        0x2 00
 .bss           0x020402fc        0x0 D:\nburn\lib\NetBurner.a(main.o)
 .bss           0x020402fc       0x56 D:\nburn\lib\NetBurner.a(utils.o)
                0x02040302                frames_rx_err
                0x02040312                frames_rx_icmp
                0x02040320                enet_last_errhw
                0x02040308                frames_tx_udp
                0x020402fc                frames_tx
                0x02040310                frames_tx_icmp
                0x0204030e                frames_rx_tcp
                0x0204031e                enet_last_errlw
                0x02040306                frames_tx_arp
                0x020402fe                frames_rx
                0x0204031c                frames_rx_ppp_errors
                0x02040322                ip_last_err
                0x02040326                frames_rx_unknown
                0x0204030a                frames_rx_udp
                0x02040300                frames_tx_err
                0x02040324                enet_isr
                0x02040318                frames_udp_errors
                0x02040316                frames_ip_discard
                0x02040328                frames_rx_fragment
                0x0204032a                static_buffer
                0x0204030c                frames_tx_tcp
                0x02040304                frames_rx_arp
                0x02040314                frames_ip_errors
                0x0204031a                frames_tcp_errors
 *fill*         0x02040352        0x2 00
 .bss           0x02040354        0xa D:\nburn\lib\NetBurner.a(ip.o)
                0x02040354                ip_errs
 *fill*         0x0204035e        0x2 00
 .bss           0x02040360    0x6b010 D:\nburn\lib\NetBurner.a(buffers.o)
                0x02040360                LastHead
 .bss           0x020ab370     0x1e20 D:\nburn\lib\NetBurner.a(arp.o)
                0x020ab380                wArpLifetime
                0x020ab370                ARP_critical_section
 .bss           0x020ad190       0x12 D:\nburn\lib\NetBurner.a(dns.o)
 *fill*         0x020ad1a2        0x2 00
 .bss           0x020ad1a4        0x8 D:\nburn\lib\NetBurner.a(udp.o)
                0x020ad1a4                ipsetup_authenticate_func
                0x020ad1a8                AutoUpdatePtr
 .bss           0x020ad1ac     0x2036 D:\nburn\lib\NetBurner.a(tcp.o)
                0x020aeb98                ShortSockets
                0x020af1d8                LastShortFree
                0x020aeb4e                semiactive_list
                0x020ad1ac                sockets
                0x020aeb48                listen_list_head
                0x020aeb4c                active_list
                0x020aeaac                m_slist
                0x020aeb44                user_closed_list_head
                0x020aeb40                free_list_head
 *fill*         0x020af1e2        0x2 00
 .bss           0x020af1e4        0x0 D:\nburn\lib\NetBurner.a(iosys.o)
 .bss           0x020af1e4       0x18 D:\nburn\lib\NetBurner.a(dhcpc.o)
                0x020af1e4                AddDhcpOptionsFunc
                0x020af1e8                AddDhcpFieldsFunc
                0x020af1ec                ParseDhcpOptions
                0x020af1f0                pDHCPOfferName
                0x020af1f4                DHCPDiscoverSeconds
 .bss           0x020af1fc        0x4 D:\nburn\lib\NetBurner.a(nbtime.o)
 .bss           0x020af200        0x0 D:\nburn\lib\NetBurner.a(ntpclient.o)
 .bss           0x020af200       0x38 D:\nburn\lib\NetBurner.a(netinterface.o)
                0x020af214                FirstInterFaceIP
                0x020af21c                FirstInterFaceGate
                0x020af218                FirstInterFaceMask
                0x020af204                pPacketfunc
                0x020af200                pArpFunc
                0x020af208                ENET_BCAST
                0x020af20e                ENET_ZERO
                0x020af220                FirstInterFaceDNS
 .bss           0x020af238     0x1004 D:\nburn\lib\NetBurner.a(taskmon.o)
 .bss           0x020b023c       0x10 D:\nburn\lib\NetBurner.a(autoupdate.o)
                0x020b0248                watchdog_service_function
                0x020b0244                update_shutdown_func
                0x020b023c                pCurRecord
                0x020b0240                update_authenticate_func
 .bss           0x020b024c       0x1c D:\nburn\lib\NetBurner.a(device.o)
                0x020b024c                DeviceQspiSem
                0x020b025a                DeviceI2cSem
 .bss           0x020b0268        0x4 D:\nburn\lib\NetBurner.a(system.o)
                0x020b0268                rnd_cnt
 .bss           0x020b026c        0x0 D:\nburn\lib\NetBurner.a(new_ops.o)
 .bss           0x020b026c        0x3 D:\nburn\lib\MOD5270.a(ioboard.o)
 *fill*         0x020b026f        0x1 00
 .bss           0x020b0270       0xf2 D:\nburn\lib\MOD5270.a(serial.o)
                0x020b0270                UartData
                0x020b034e                Third_Ioexp
 *fill*         0x020b0362        0x2 00
 .bss           0x020b0364       0x5e D:\nburn\lib\MOD5270.a(ethernet.o)
                0x020b0378                phy_read_mdata11
                0x020b036c                bNewLink
                0x020b0368                bEth100Mb
                0x020b037c                AutoTimeOut
                0x020b0374                phy_read_mdata1
                0x020b0380                v
                0x020b0370                bOldDuplex
                0x020b0384                DONT_HANG
                0x020b0388                EthernetBlock
                0x020b0364                bEthDuplex
 *fill*         0x020b03c2        0x2 00
 .bss           0x020b03c4        0x0 D:\nburn\lib\MOD5270.a(etherprint.o)
 .bss           0x020b03c4      0x100 D:\nburn\lib\MOD5270.a(emulticast.o)
 .bss           0x020b04c4       0xee D:\nburn\lib\NetBurner.a(extraio.o)
 *fill*         0x020b05b2        0x2 00
 .bss           0x020b05b4        0x0 d:/nburn/gcc-m68k/bin/../lib/gcc/m68k-elf/4.2.1/../../../../m68k-elf/lib/m5208\libstdc++.a(string-inst.o)
 .bss           0x020b05b4        0x0 d:/nburn/gcc-m68k/bin/../lib/gcc/m68k-elf/4.2.1/../../../../m68k-elf/lib/m5208\libstdc++.a(del_op.o)
 .bss           0x020b05b4        0x0 d:/nburn/gcc-m68k/bin/../lib/gcc/m68k-elf/4.2.1/../../../../m68k-elf/lib/m5208\libstdc++.a(eh_personality.o)
 .bss           0x020b05b4        0x0 d:/nburn/gcc-m68k/bin/../lib/gcc/m68k-elf/4.2.1/../../../../m68k-elf/lib/m5208\libstdc++.a(eh_alloc.o)
 .bss           0x020b05b4        0x0 d:/nburn/gcc-m68k/bin/../lib/gcc/m68k-elf/4.2.1/../../../../m68k-elf/lib/m5208\libstdc++.a(functexcept.o)
 .bss           0x020b05b4        0x0 d:/nburn/gcc-m68k/bin/../lib/gcc/m68k-elf/4.2.1/../../../../m68k-elf/lib/m5208\libstdc++.a(ios_failure.o)
 .bss           0x020b05b4        0x0 d:/nburn/gcc-m68k/bin/../lib/gcc/m68k-elf/4.2.1/../../../../m68k-elf/lib/m5208\libstdc++.a(stdexcept.o)
 .bss           0x020b05b4        0x0 d:/nburn/gcc-m68k/bin/../lib/gcc/m68k-elf/4.2.1/../../../../m68k-elf/lib/m5208\libstdc++.a(eh_throw.o)
 .bss           0x020b05b4        0x0 d:/nburn/gcc-m68k/bin/../lib/gcc/m68k-elf/4.2.1/../../../../m68k-elf/lib/m5208\libstdc++.a(new_handler.o)
 .bss           0x020b05b4        0x0 d:/nburn/gcc-m68k/bin/../lib/gcc/m68k-elf/4.2.1/../../../../m68k-elf/lib/m5208\libstdc++.a(eh_globals.o)
 .bss           0x020b05b4        0x0 d:/nburn/gcc-m68k/bin/../lib/gcc/m68k-elf/4.2.1/../../../../m68k-elf/lib/m5208\libstdc++.a(eh_exception.o)
 .bss           0x020b05b4        0x0 d:/nburn/gcc-m68k/bin/../lib/gcc/m68k-elf/4.2.1/../../../../m68k-elf/lib/m5208\libstdc++.a(eh_catch.o)
 .bss           0x020b05b4        0x0 d:/nburn/gcc-m68k/bin/../lib/gcc/m68k-elf/4.2.1/../../../../m68k-elf/lib/m5208\libstdc++.a(eh_terminate.o)
 .bss           0x020b05b4        0x0 d:/nburn/gcc-m68k/bin/../lib/gcc/m68k-elf/4.2.1/../../../../m68k-elf/lib/m5208\libstdc++.a(bad_typeid.o)
 .bss           0x020b05b4        0x0 d:/nburn/gcc-m68k/bin/../lib/gcc/m68k-elf/4.2.1/../../../../m68k-elf/lib/m5208\libstdc++.a(eh_call.o)
 .bss           0x020b05b4        0x0 d:/nburn/gcc-m68k/bin/../lib/gcc/m68k-elf/4.2.1/../../../../m68k-elf/lib/m5208\libstdc++.a(class_type_info.o)
 .bss           0x020b05b4        0x0 d:/nburn/gcc-m68k/bin/../lib/gcc/m68k-elf/4.2.1/../../../../m68k-elf/lib/m5208\libstdc++.a(eh_term_handler.o)
 .bss           0x020b05b4        0x0 d:/nburn/gcc-m68k/bin/../lib/gcc/m68k-elf/4.2.1/../../../../m68k-elf/lib/m5208\libstdc++.a(bad_cast.o)
 .bss           0x020b05b4        0x0 d:/nburn/gcc-m68k/bin/../lib/gcc/m68k-elf/4.2.1/../../../../m68k-elf/lib/m5208\libstdc++.a(eh_unex_handler.o)
 .bss           0x020b05b4        0x0 d:/nburn/gcc-m68k/bin/../lib/gcc/m68k-elf/4.2.1/../../../../m68k-elf/lib/m5208\libstdc++.a(si_class_type_info.o)
 .bss           0x020b05b4        0x0 d:/nburn/gcc-m68k/bin/../lib/gcc/m68k-elf/4.2.1/../../../../m68k-elf/lib/m5208\libstdc++.a(vterminate.o)
 .bss           0x020b05b4        0x0 d:/nburn/gcc-m68k/bin/../lib/gcc/m68k-elf/4.2.1/../../../../m68k-elf/lib/m5208\libstdc++.a(cp-demangle.o)
 .bss           0x020b05b4        0x0 d:/nburn/gcc-m68k/bin/../lib/gcc/m68k-elf/4.2.1/../../../../m68k-elf/lib/m5208\libstdc++.a(tinfo.o)
 .bss           0x020b05b4        0x0 d:/nburn/gcc-m68k/bin/../lib/gcc/m68k-elf/4.2.1/../../../../m68k-elf/lib/m5208\libstdc++.a(eh_type.o)
 .bss           0x020b05b4        0x0 d:/nburn/gcc-m68k/bin/../lib/gcc/m68k-elf/4.2.1/m5208\libgcc.a(_double.o)
 .bss           0x020b05b4        0x0 d:/nburn/gcc-m68k/bin/../lib/gcc/m68k-elf/4.2.1/m5208\libgcc.a(_floatex.o)
 .bss           0x020b05b4        0x0 d:/nburn/gcc-m68k/bin/../lib/gcc/m68k-elf/4.2.1/m5208\libgcc.a(_ltdf2.o)
 .bss           0x020b05b4        0x0 d:/nburn/gcc-m68k/bin/../lib/gcc/m68k-elf/4.2.1/m5208\libgcc.a(_muldi3.o)
 .bss           0x020b05b4        0x0 d:/nburn/gcc-m68k/bin/../lib/gcc/m68k-elf/4.2.1/m5208\libgcc.a(_fixunsdfsi.o)
 .bss           0x020b05b4        0x0 d:/nburn/gcc-m68k/bin/../lib/gcc/m68k-elf/4.2.1/m5208\libgcc.a(fpgnulib.o)
 .bss           0x020b05b4       0x1a d:/nburn/gcc-m68k/bin/../lib/gcc/m68k-elf/4.2.1/m5208\libgcc.a(unwind-dw2.o)
 *fill*         0x020b05ce        0x2 00
 .bss           0x020b05d0        0xc d:/nburn/gcc-m68k/bin/../lib/gcc/m68k-elf/4.2.1/m5208\libgcc.a(unwind-dw2-fde.o)
 .bss           0x020b05dc        0x0 d:/nburn/gcc-m68k/bin/../lib/gcc/m68k-elf/4.2.1/m5208\libgcc.a(_gedf2.o)
 .bss           0x020b05dc        0x0 d:/nburn/gcc-m68k/bin/../lib/gcc/m68k-elf/4.2.1/../../../../m68k-elf/lib/m5208\libc.a(lib_a-abort.o)
 .bss           0x020b05dc        0x0 d:/nburn/gcc-m68k/bin/../lib/gcc/m68k-elf/4.2.1/../../../../m68k-elf/lib/m5208\libc.a(lib_a-asctime.o)
 .bss           0x020b05dc        0x0 d:/nburn/gcc-m68k/bin/../lib/gcc/m68k-elf/4.2.1/../../../../m68k-elf/lib/m5208\libc.a(lib_a-asctime_r.o)
 .bss           0x020b05dc        0x0 d:/nburn/gcc-m68k/bin/../lib/gcc/m68k-elf/4.2.1/../../../../m68k-elf/lib/m5208\libc.a(lib_a-cxa_atexit.o)
 .bss           0x020b05dc        0x0 d:/nburn/gcc-m68k/bin/../lib/gcc/m68k-elf/4.2.1/../../../../m68k-elf/lib/m5208\libc.a(lib_a-errno.o)
 .bss           0x020b05dc        0x0 d:/nburn/gcc-m68k/bin/../lib/gcc/m68k-elf/4.2.1/../../../../m68k-elf/lib/m5208\libc.a(lib_a-fiprintf.o)
 .bss           0x020b05dc        0x0 d:/nburn/gcc-m68k/bin/../lib/gcc/m68k-elf/4.2.1/../../../../m68k-elf/lib/m5208\libc.a(lib_a-fputc.o)
 .bss           0x020b05dc        0x0 d:/nburn/gcc-m68k/bin/../lib/gcc/m68k-elf/4.2.1/../../../../m68k-elf/lib/m5208\libc.a(lib_a-fputs.o)
 .bss           0x020b05dc        0x0 d:/nburn/gcc-m68k/bin/../lib/gcc/m68k-elf/4.2.1/../../../../m68k-elf/lib/m5208\libc.a(lib_a-fvwrite.o)
 .bss           0x020b05dc        0x0 d:/nburn/gcc-m68k/bin/../lib/gcc/m68k-elf/4.2.1/../../../../m68k-elf/lib/m5208\libc.a(lib_a-fwrite.o)
 .bss           0x020b05dc        0x0 d:/nburn/gcc-m68k/bin/../lib/gcc/m68k-elf/4.2.1/../../../../m68k-elf/lib/m5208\libc.a(lib_a-getchar.o)
 .bss           0x020b05dc        0x0 d:/nburn/gcc-m68k/bin/../lib/gcc/m68k-elf/4.2.1/../../../../m68k-elf/lib/m5208\libc.a(lib_a-getc.o)
 .bss           0x020b05dc        0x0 d:/nburn/gcc-m68k/bin/../lib/gcc/m68k-elf/4.2.1/../../../../m68k-elf/lib/m5208\libc.a(lib_a-gettzinfo.o)
 .bss           0x020b05dc        0x0 d:/nburn/gcc-m68k/bin/../lib/gcc/m68k-elf/4.2.1/../../../../m68k-elf/lib/m5208\libc.a(lib_a-gmtime.o)
 .bss           0x020b05dc        0x0 d:/nburn/gcc-m68k/bin/../lib/gcc/m68k-elf/4.2.1/../../../../m68k-elf/lib/m5208\libc.a(lib_a-gmtime_r.o)
 .bss           0x020b05dc        0x0 d:/nburn/gcc-m68k/bin/../lib/gcc/m68k-elf/4.2.1/../../../../m68k-elf/lib/m5208\libc.a(lib_a-impure.o)
 .bss           0x020b05dc        0x0 d:/nburn/gcc-m68k/bin/../lib/gcc/m68k-elf/4.2.1/../../../../m68k-elf/lib/m5208\libc.a(lib_a-iprintf.o)
 .bss           0x020b05dc        0x0 d:/nburn/gcc-m68k/bin/../lib/gcc/m68k-elf/4.2.1/../../../../m68k-elf/lib/m5208\libc.a(lib_a-lcltime_r.o)
 .bss           0x020b05dc        0x0 d:/nburn/gcc-m68k/bin/../lib/gcc/m68k-elf/4.2.1/../../../../m68k-elf/lib/m5208\libc.a(lib_a-malloc.o)
 .bss           0x020b05dc       0x34 d:/nburn/gcc-m68k/bin/../lib/gcc/m68k-elf/4.2.1/../../../../m68k-elf/lib/m5208\libc.a(lib_a-mallocr.o)
                0x020b05dc                __malloc_top_pad
                0x020b05e0                __malloc_max_sbrked_mem
                0x020b05e8                __malloc_current_mallinfo
                0x020b05e4                __malloc_max_total_mem
 .bss           0x020b0610        0x0 d:/nburn/gcc-m68k/bin/../lib/gcc/m68k-elf/4.2.1/../../../../m68k-elf/lib/m5208\libc.a(lib_a-memchr.o)
 .bss           0x020b0610        0x0 d:/nburn/gcc-m68k/bin/../lib/gcc/m68k-elf/4.2.1/../../../../m68k-elf/lib/m5208\libc.a(lib_a-memcmp.o)
 .bss           0x020b0610        0x0 d:/nburn/gcc-m68k/bin/../lib/gcc/m68k-elf/4.2.1/../../../../m68k-elf/lib/m5208\libc.a(lib_a-memmove.o)
 .bss           0x020b0610        0x0 d:/nburn/gcc-m68k/bin/../lib/gcc/m68k-elf/4.2.1/../../../../m68k-elf/lib/m5208\libc.a(lib_a-mktm_r.o)
 .bss           0x020b0610        0x0 d:/nburn/gcc-m68k/bin/../lib/gcc/m68k-elf/4.2.1/../../../../m68k-elf/lib/m5208\libc.a(lib_a-putc.o)
 .bss           0x020b0610        0x0 d:/nburn/gcc-m68k/bin/../lib/gcc/m68k-elf/4.2.1/../../../../m68k-elf/lib/m5208\libc.a(lib_a-puts.o)
 .bss           0x020b0610        0x0 d:/nburn/gcc-m68k/bin/../lib/gcc/m68k-elf/4.2.1/../../../../m68k-elf/lib/m5208\libc.a(lib_a-realloc.o)
 .bss           0x020b0610        0x0 d:/nburn/gcc-m68k/bin/../lib/gcc/m68k-elf/4.2.1/../../../../m68k-elf/lib/m5208\libc.a(lib_a-reallocr.o)
 .bss           0x020b0610        0x0 d:/nburn/gcc-m68k/bin/../lib/gcc/m68k-elf/4.2.1/../../../../m68k-elf/lib/m5208\libc.a(lib_a-rget.o)
 .bss           0x020b0610        0x0 d:/nburn/gcc-m68k/bin/../lib/gcc/m68k-elf/4.2.1/../../../../m68k-elf/lib/m5208\libc.a(lib_a-setvbuf.o)
 .bss           0x020b0610        0x0 d:/nburn/gcc-m68k/bin/../lib/gcc/m68k-elf/4.2.1/../../../../m68k-elf/lib/m5208\libc.a(lib_a-signal.o)
 .bss           0x020b0610        0x0 d:/nburn/gcc-m68k/bin/../lib/gcc/m68k-elf/4.2.1/../../../../m68k-elf/lib/m5208\libc.a(lib_a-signalr.o)
 .bss           0x020b0610        0x0 d:/nburn/gcc-m68k/bin/../lib/gcc/m68k-elf/4.2.1/../../../../m68k-elf/lib/m5208\libc.a(lib_a-siprintf.o)
 .bss           0x020b0610        0x0 d:/nburn/gcc-m68k/bin/../lib/gcc/m68k-elf/4.2.1/../../../../m68k-elf/lib/m5208\libc.a(lib_a-sprintf.o)
 .bss           0x020b0610        0x0 d:/nburn/gcc-m68k/bin/../lib/gcc/m68k-elf/4.2.1/../../../../m68k-elf/lib/m5208\libc.a(lib_a-sscanf.o)
 .bss           0x020b0610        0x0 d:/nburn/gcc-m68k/bin/../lib/gcc/m68k-elf/4.2.1/../../../../m68k-elf/lib/m5208\libc.a(lib_a-strcat.o)
 .bss           0x020b0610        0x0 d:/nburn/gcc-m68k/bin/../lib/gcc/m68k-elf/4.2.1/../../../../m68k-elf/lib/m5208\libc.a(lib_a-strcmp.o)
 .bss           0x020b0610        0x0 d:/nburn/gcc-m68k/bin/../lib/gcc/m68k-elf/4.2.1/../../../../m68k-elf/lib/m5208\libc.a(lib_a-strcpy.o)
 .bss           0x020b0610        0x0 d:/nburn/gcc-m68k/bin/../lib/gcc/m68k-elf/4.2.1/../../../../m68k-elf/lib/m5208\libc.a(lib_a-strlen.o)
 .bss           0x020b0610        0x0 d:/nburn/gcc-m68k/bin/../lib/gcc/m68k-elf/4.2.1/../../../../m68k-elf/lib/m5208\libc.a(lib_a-strncmp.o)
 .bss           0x020b0610        0x0 d:/nburn/gcc-m68k/bin/../lib/gcc/m68k-elf/4.2.1/../../../../m68k-elf/lib/m5208\libc.a(lib_a-strtoul.o)
 .bss           0x020b0610        0x8 d:/nburn/gcc-m68k/bin/../lib/gcc/m68k-elf/4.2.1/../../../../m68k-elf/lib/m5208\libc.a(lib_a-tzvars.o)
                0x020b0610                _daylight
                0x020b0614                _timezone
 .bss           0x020b0618        0x0 d:/nburn/gcc-m68k/bin/../lib/gcc/m68k-elf/4.2.1/../../../../m68k-elf/lib/m5208\libc.a(lib_a-vfiprintf.o)
 .bss           0x020b0618        0x0 d:/nburn/gcc-m68k/bin/../lib/gcc/m68k-elf/4.2.1/../../../../m68k-elf/lib/m5208\libc.a(lib_a-vfprintf.o)
 .bss           0x020b0618        0x0 d:/nburn/gcc-m68k/bin/../lib/gcc/m68k-elf/4.2.1/../../../../m68k-elf/lib/m5208\libc.a(lib_a-vfscanf.o)
 .bss           0x020b0618        0x0 d:/nburn/gcc-m68k/bin/../lib/gcc/m68k-elf/4.2.1/../../../../m68k-elf/lib/m5208\libc.a(lib_a-wbuf.o)
 .bss           0x020b0618        0x0 d:/nburn/gcc-m68k/bin/../lib/gcc/m68k-elf/4.2.1/../../../../m68k-elf/lib/m5208\libc.a(lib_a-wcrtomb.o)
 .bss           0x020b0618        0x0 d:/nburn/gcc-m68k/bin/../lib/gcc/m68k-elf/4.2.1/../../../../m68k-elf/lib/m5208\libc.a(lib_a-wcsrtombs.o)
 .bss           0x020b0618        0x0 d:/nburn/gcc-m68k/bin/../lib/gcc/m68k-elf/4.2.1/../../../../m68k-elf/lib/m5208\libc.a(lib_a-wctomb_r.o)
 .bss           0x020b0618        0x0 d:/nburn/gcc-m68k/bin/../lib/gcc/m68k-elf/4.2.1/../../../../m68k-elf/lib/m5208\libc.a(lib_a-wsetup.o)
 .bss           0x020b0618        0x0 d:/nburn/gcc-m68k/bin/../lib/gcc/m68k-elf/4.2.1/../../../../m68k-elf/lib/m5208\libc.a(lib_a-__atexit.o)
 .bss           0x020b0618        0x0 d:/nburn/gcc-m68k/bin/../lib/gcc/m68k-elf/4.2.1/../../../../m68k-elf/lib/m5208\libc.a(lib_a-ctype_.o)
 .bss           0x020b0618        0x0 d:/nburn/gcc-m68k/bin/../lib/gcc/m68k-elf/4.2.1/../../../../m68k-elf/lib/m5208\libc.a(lib_a-dtoa.o)
 .bss           0x020b0618        0x0 d:/nburn/gcc-m68k/bin/../lib/gcc/m68k-elf/4.2.1/../../../../m68k-elf/lib/m5208\libc.a(lib_a-fflush.o)
 .bss           0x020b0618        0x0 d:/nburn/gcc-m68k/bin/../lib/gcc/m68k-elf/4.2.1/../../../../m68k-elf/lib/m5208\libc.a(lib_a-findfp.o)
 .bss           0x020b0618        0x0 d:/nburn/gcc-m68k/bin/../lib/gcc/m68k-elf/4.2.1/../../../../m68k-elf/lib/m5208\libc.a(lib_a-fread.o)
 .bss           0x020b0618        0x0 d:/nburn/gcc-m68k/bin/../lib/gcc/m68k-elf/4.2.1/../../../../m68k-elf/lib/m5208\libc.a(lib_a-freer.o)
 .bss           0x020b0618        0x0 d:/nburn/gcc-m68k/bin/../lib/gcc/m68k-elf/4.2.1/../../../../m68k-elf/lib/m5208\libc.a(lib_a-fwalk.o)
 .bss           0x020b0618        0x0 d:/nburn/gcc-m68k/bin/../lib/gcc/m68k-elf/4.2.1/../../../../m68k-elf/lib/m5208\libc.a(lib_a-iswspace.o)
 .bss           0x020b0618        0xc d:/nburn/gcc-m68k/bin/../lib/gcc/m68k-elf/4.2.1/../../../../m68k-elf/lib/m5208\libc.a(lib_a-locale.o)
                0x020b0618                __nlocale_changed
                0x020b061c                __mlocale_changed
                0x020b0620                _PathLocale
 .bss           0x020b0624        0x0 d:/nburn/gcc-m68k/bin/../lib/gcc/m68k-elf/4.2.1/../../../../m68k-elf/lib/m5208\libc.a(lib_a-makebuf.o)
 .bss           0x020b0624        0x0 d:/nburn/gcc-m68k/bin/../lib/gcc/m68k-elf/4.2.1/../../../../m68k-elf/lib/m5208\libc.a(lib_a-mbrtowc.o)
 .bss           0x020b0624        0x0 d:/nburn/gcc-m68k/bin/../lib/gcc/m68k-elf/4.2.1/../../../../m68k-elf/lib/m5208\libc.a(lib_a-mbtowc_r.o)
 .bss           0x020b0624        0x0 d:/nburn/gcc-m68k/bin/../lib/gcc/m68k-elf/4.2.1/../../../../m68k-elf/lib/m5208\libc.a(lib_a-mprec.o)
 .bss           0x020b0624        0x0 d:/nburn/gcc-m68k/bin/../lib/gcc/m68k-elf/4.2.1/../../../../m68k-elf/lib/m5208\libc.a(lib_a-refill.o)
 .bss           0x020b0624        0x0 d:/nburn/gcc-m68k/bin/../lib/gcc/m68k-elf/4.2.1/../../../../m68k-elf/lib/m5208\libc.a(lib_a-sccl.o)
 .bss           0x020b0624        0x0 d:/nburn/gcc-m68k/bin/../lib/gcc/m68k-elf/4.2.1/../../../../m68k-elf/lib/m5208\libc.a(lib_a-sf_nan.o)
 .bss           0x020b0624        0x0 d:/nburn/gcc-m68k/bin/../lib/gcc/m68k-elf/4.2.1/../../../../m68k-elf/lib/m5208\libc.a(lib_a-s_isinfd.o)
 .bss           0x020b0624        0x0 d:/nburn/gcc-m68k/bin/../lib/gcc/m68k-elf/4.2.1/../../../../m68k-elf/lib/m5208\libc.a(lib_a-s_isnand.o)
 .bss           0x020b0624        0x0 d:/nburn/gcc-m68k/bin/../lib/gcc/m68k-elf/4.2.1/../../../../m68k-elf/lib/m5208\libc.a(lib_a-stdio.o)
 .bss           0x020b0624        0x0 d:/nburn/gcc-m68k/bin/../lib/gcc/m68k-elf/4.2.1/../../../../m68k-elf/lib/m5208\libc.a(lib_a-strtod.o)
 .bss           0x020b0624        0x0 d:/nburn/gcc-m68k/bin/../lib/gcc/m68k-elf/4.2.1/../../../../m68k-elf/lib/m5208\libc.a(lib_a-strtoll_r.o)
 .bss           0x020b0624        0x0 d:/nburn/gcc-m68k/bin/../lib/gcc/m68k-elf/4.2.1/../../../../m68k-elf/lib/m5208\libc.a(lib_a-strtol.o)
 .bss           0x020b0624        0x0 d:/nburn/gcc-m68k/bin/../lib/gcc/m68k-elf/4.2.1/../../../../m68k-elf/lib/m5208\libc.a(lib_a-strtoull_r.o)
 .bss           0x020b0624        0x0 d:/nburn/gcc-m68k/bin/../lib/gcc/m68k-elf/4.2.1/../../../../m68k-elf/lib/m5208\libc.a(lib_a-ungetc.o)
 .bss           0x020b0624        0x0 d:/nburn/gcc-m68k/bin/../lib/gcc/m68k-elf/4.2.1/../../../../m68k-elf/lib/m5208\libc.a(lib_a-writer.o)
 .bss           0x020b0624        0x0 d:/nburn/gcc-m68k/bin/../lib/gcc/m68k-elf/4.2.1/../../../../m68k-elf/lib/m5208\libc.a(lib_a-callocr.o)
 .bss           0x020b0624        0x0 d:/nburn/gcc-m68k/bin/../lib/gcc/m68k-elf/4.2.1/../../../../m68k-elf/lib/m5208\libc.a(lib_a-closer.o)
 .bss           0x020b0624        0x0 d:/nburn/gcc-m68k/bin/../lib/gcc/m68k-elf/4.2.1/../../../../m68k-elf/lib/m5208\libc.a(lib_a-fclose.o)
 .bss           0x020b0624        0x0 d:/nburn/gcc-m68k/bin/../lib/gcc/m68k-elf/4.2.1/../../../../m68k-elf/lib/m5208\libc.a(lib_a-fstatr.o)
 .bss           0x020b0624        0x0 d:/nburn/gcc-m68k/bin/../lib/gcc/m68k-elf/4.2.1/../../../../m68k-elf/lib/m5208\libc.a(lib_a-gdtoa-gethex.o)
 .bss           0x020b0624        0x0 d:/nburn/gcc-m68k/bin/../lib/gcc/m68k-elf/4.2.1/../../../../m68k-elf/lib/m5208\libc.a(lib_a-gdtoa-hexnan.o)
 .bss           0x020b0624        0x0 d:/nburn/gcc-m68k/bin/../lib/gcc/m68k-elf/4.2.1/../../../../m68k-elf/lib/m5208\libc.a(lib_a-lseekr.o)
 .bss           0x020b0624        0x0 d:/nburn/gcc-m68k/bin/../lib/gcc/m68k-elf/4.2.1/../../../../m68k-elf/lib/m5208\libc.a(lib_a-readr.o)
 .bss           0x020b0624        0x0 d:/nburn/gcc-m68k/bin/../lib/gcc/m68k-elf/4.2.1/m5208\libgcc.a(_eqdf2.o)
 .bss           0x020b0624        0x0 d:/nburn/gcc-m68k/bin/../lib/gcc/m68k-elf/4.2.1/m5208\libgcc.a(_nedf2.o)
 .bss           0x020b0624        0x0 d:/nburn/gcc-m68k/bin/../lib/gcc/m68k-elf/4.2.1/m5208\libgcc.a(_gtdf2.o)
 .bss           0x020b0624        0x0 d:/nburn/gcc-m68k/bin/../lib/gcc/m68k-elf/4.2.1/m5208\libgcc.a(_ledf2.o)
 .bss           0x020b0624        0x0 d:/nburn/gcc-m68k/bin/../lib/gcc/m68k-elf/4.2.1/m5208\libgcc.a(_nesf2.o)
 .bss           0x020b0624        0x0 d:/nburn/gcc-m68k/bin/../lib/gcc/m68k-elf/4.2.1/m5208\libgcc.a(_gtsf2.o)
 .bss           0x020b0624        0x0 d:/nburn/gcc-m68k/bin/../lib/gcc/m68k-elf/4.2.1/m5208\libgcc.a(_ltsf2.o)
 .bss           0x020b0624        0x0 d:/nburn/gcc-m68k/bin/../lib/gcc/m68k-elf/4.2.1/m5208\libgcc.a(_udivdi3.o)
 .bss           0x020b0624        0x0 d:/nburn/gcc-m68k/bin/../lib/gcc/m68k-elf/4.2.1/m5208\libgcc.a(_umoddi3.o)
 .bss           0x020b0624        0x0 d:/nburn/gcc-m68k/bin/../lib/gcc/m68k-elf/4.2.1/m5208\libgcc.a(_float.o)
 .bss           0x020b0624        0x0 d:/nburn/gcc-m68k/bin/../lib/gcc/m68k-elf/4.2.1/m5208/crtend.o
 *(.bss.*)
 .bss._ZNSs4_Rep20_S_empty_rep_storageE
                0x020b0624       0x10 d:/nburn/gcc-m68k/bin/../lib/gcc/m68k-elf/4.2.1/../../../../m68k-elf/lib/m5208\libstdc++.a(string-inst.o)
                0x020b0624                std::string::_Rep::_S_empty_rep_storage
 .bss.emergency_buffer
                0x020b0634      0x800 d:/nburn/gcc-m68k/bin/../lib/gcc/m68k-elf/4.2.1/../../../../m68k-elf/lib/m5208\libstdc++.a(eh_alloc.o)
 .bss.emergency_used
                0x020b0e34        0x4 d:/nburn/gcc-m68k/bin/../lib/gcc/m68k-elf/4.2.1/../../../../m68k-elf/lib/m5208\libstdc++.a(eh_alloc.o)
 .bss.__new_handler
                0x020b0e38        0x4 d:/nburn/gcc-m68k/bin/../lib/gcc/m68k-elf/4.2.1/../../../../m68k-elf/lib/m5208\libstdc++.a(new_handler.o)
                0x020b0e38                __new_handler
 .bss.eh_globals
                0x020b0e3c        0x8 d:/nburn/gcc-m68k/bin/../lib/gcc/m68k-elf/4.2.1/../../../../m68k-elf/lib/m5208\libstdc++.a(eh_globals.o)
 .bss._ZZN9__gnu_cxx27__verbose_terminate_handlerEvE11terminating
                0x020b0e44        0x1 d:/nburn/gcc-m68k/bin/../lib/gcc/m68k-elf/4.2.1/../../../../m68k-elf/lib/m5208\libstdc++.a(vterminate.o)
 *(COMMON)
 *fill*         0x020b0e45        0x1 00
 COMMON         0x020b0e46       0x16 D:\nburn\lib\MOD5270.a(bsp.o)
                0x020b0e46                errno
                0x020b0e4a                TERR_REGISTER
                0x020b0e4c                heap_ptr
                0x020b0e50                tpmr
                0x020b0e54                PlatformName
                0x020b0e58                CPU_CLOCK
 COMMON         0x020b0e5c     0x2000 D:\nburn\lib\NetBurner.a(ucosmain.o)
                0x020b0e5c                OSIdleTaskStk
 COMMON         0x020b2e5c      0xa04 D:\nburn\lib\NetBurner.a(system.o)
                0x020b2e5c                NotifyUpdatePtr
                0x020b2e60                rnd_collect
                0x020b3060                config_rec_buf
 COMMON         0x020b3860      0x100 d:/nburn/gcc-m68k/bin/../lib/gcc/m68k-elf/4.2.1/../../../../m68k-elf/lib/m5208\libc.a(lib_a-gdtoa-gethex.o)
                0x020b3860                __hexdig
                0x020b3960                _end = ALIGN (0x8)
                0x020b3960                __end = _end

.stab
 *(.stab)

.stabstr
 *(.stabstr)

.debug
 *(.debug)

.line
 *(.line)

.debug_srcinfo
 *(.debug_srcinfo)

.debug_sfnames
 *(.debug_sfnames)

.debug_aranges  0x00000000      0x400
 *(.debug_aranges)
 .debug_aranges
                0x00000000       0x20 main.o
 .debug_aranges
                0x00000020       0x20 D:\nburn\lib\MOD5270.a(bsp.o)
 .debug_aranges
                0x00000040       0x20 D:\nburn\lib\MOD5270.a(pins.o)
 .debug_aranges
                0x00000060       0x20 D:\nburn\lib\NetBurner.a(ucosmcfc.o)
 .debug_aranges
                0x00000080       0x20 D:\nburn\lib\NetBurner.a(ucos.o)
 .debug_aranges
                0x000000a0       0x20 D:\nburn\lib\NetBurner.a(ucosmain.o)
 .debug_aranges
                0x000000c0       0x20 D:\nburn\lib\NetBurner.a(fileio.o)
 .debug_aranges
                0x000000e0       0x20 D:\nburn\lib\NetBurner.a(tzsetchar.o)
 .debug_aranges
                0x00000100       0x20 D:\nburn\lib\NetBurner.a(main.o)
 .debug_aranges
                0x00000120       0x20 D:\nburn\lib\NetBurner.a(utils.o)
 .debug_aranges
                0x00000140       0x20 D:\nburn\lib\NetBurner.a(ip.o)
 .debug_aranges
                0x00000160       0x20 D:\nburn\lib\NetBurner.a(buffers.o)
 .debug_aranges
                0x00000180       0x20 D:\nburn\lib\NetBurner.a(arp.o)
 .debug_aranges
                0x000001a0       0x20 D:\nburn\lib\NetBurner.a(dns.o)
 .debug_aranges
                0x000001c0       0x20 D:\nburn\lib\NetBurner.a(udp.o)
 .debug_aranges
                0x000001e0       0x20 D:\nburn\lib\NetBurner.a(tcp.o)
 .debug_aranges
                0x00000200       0x20 D:\nburn\lib\NetBurner.a(iosys.o)
 .debug_aranges
                0x00000220       0x20 D:\nburn\lib\NetBurner.a(dhcpc.o)
 .debug_aranges
                0x00000240       0x20 D:\nburn\lib\NetBurner.a(nbtime.o)
 .debug_aranges
                0x00000260       0x20 D:\nburn\lib\NetBurner.a(ntpclient.o)
 .debug_aranges
                0x00000280       0x20 D:\nburn\lib\NetBurner.a(netinterface.o)
 .debug_aranges
                0x000002a0       0x20 D:\nburn\lib\NetBurner.a(taskmon.o)
 .debug_aranges
                0x000002c0       0x20 D:\nburn\lib\NetBurner.a(autoupdate.o)
 .debug_aranges
                0x000002e0       0x20 D:\nburn\lib\NetBurner.a(device.o)
 .debug_aranges
                0x00000300       0x20 D:\nburn\lib\NetBurner.a(system.o)
 .debug_aranges
                0x00000320       0x20 D:\nburn\lib\NetBurner.a(new_ops.o)
 .debug_aranges
                0x00000340       0x20 D:\nburn\lib\MOD5270.a(ioboard.o)
 .debug_aranges
                0x00000360       0x20 D:\nburn\lib\MOD5270.a(serial.o)
 .debug_aranges
                0x00000380       0x20 D:\nburn\lib\MOD5270.a(ethernet.o)
 .debug_aranges
                0x000003a0       0x20 D:\nburn\lib\MOD5270.a(etherprint.o)
 .debug_aranges
                0x000003c0       0x20 D:\nburn\lib\MOD5270.a(emulticast.o)
 .debug_aranges
                0x000003e0       0x20 D:\nburn\lib\NetBurner.a(extraio.o)

.debug_pubnames
                0x00000000     0x38a9
 *(.debug_pubnames)
 .debug_pubnames
                0x00000000      0x3a2 main.o
 .debug_pubnames
                0x000003a2      0x15f D:\nburn\lib\MOD5270.a(bsp.o)
 .debug_pubnames
                0x00000501       0x7e D:\nburn\lib\MOD5270.a(pins.o)
 .debug_pubnames
                0x0000057f       0x62 D:\nburn\lib\NetBurner.a(ucosmcfc.o)
 .debug_pubnames
                0x000005e1      0x37f D:\nburn\lib\NetBurner.a(ucos.o)
 .debug_pubnames
                0x00000960       0xa8 D:\nburn\lib\NetBurner.a(ucosmain.o)
 .debug_pubnames
                0x00000a08       0xd7 D:\nburn\lib\NetBurner.a(fileio.o)
 .debug_pubnames
                0x00000adf       0x20 D:\nburn\lib\NetBurner.a(tzsetchar.o)
 .debug_pubnames
                0x00000aff       0x3d D:\nburn\lib\NetBurner.a(main.o)
 .debug_pubnames
                0x00000b3c      0x2e3 D:\nburn\lib\NetBurner.a(utils.o)
 .debug_pubnames
                0x00000e1f      0x262 D:\nburn\lib\NetBurner.a(ip.o)
 .debug_pubnames
                0x00001081      0x3ea D:\nburn\lib\NetBurner.a(buffers.o)
 .debug_pubnames
                0x0000146b      0x1fb D:\nburn\lib\NetBurner.a(arp.o)
 .debug_pubnames
                0x00001666       0x24 D:\nburn\lib\NetBurner.a(dns.o)
 .debug_pubnames
                0x0000168a      0x439 D:\nburn\lib\NetBurner.a(udp.o)
 .debug_pubnames
                0x00001ac3      0x98e D:\nburn\lib\NetBurner.a(tcp.o)
 .debug_pubnames
                0x00002451      0x1b2 D:\nburn\lib\NetBurner.a(iosys.o)
 .debug_pubnames
                0x00002603      0x543 D:\nburn\lib\NetBurner.a(dhcpc.o)
 .debug_pubnames
                0x00002b46       0x28 D:\nburn\lib\NetBurner.a(nbtime.o)
 .debug_pubnames
                0x00002b6e       0x83 D:\nburn\lib\NetBurner.a(ntpclient.o)
 .debug_pubnames
                0x00002bf1      0x1f8 D:\nburn\lib\NetBurner.a(netinterface.o)
 .debug_pubnames
                0x00002de9       0x55 D:\nburn\lib\NetBurner.a(taskmon.o)
 .debug_pubnames
                0x00002e3e       0xd8 D:\nburn\lib\NetBurner.a(autoupdate.o)
 .debug_pubnames
                0x00002f16       0x76 D:\nburn\lib\NetBurner.a(device.o)
 .debug_pubnames
                0x00002f8c      0x10e D:\nburn\lib\NetBurner.a(system.o)
 .debug_pubnames
                0x0000309a       0x23 D:\nburn\lib\NetBurner.a(new_ops.o)
 .debug_pubnames
                0x000030bd       0xc2 D:\nburn\lib\MOD5270.a(ioboard.o)
 .debug_pubnames
                0x0000317f      0x20d D:\nburn\lib\MOD5270.a(serial.o)
 .debug_pubnames
                0x0000338c      0x394 D:\nburn\lib\MOD5270.a(ethernet.o)
 .debug_pubnames
                0x00003720       0xb4 D:\nburn\lib\MOD5270.a(etherprint.o)
 .debug_pubnames
                0x000037d4       0x55 D:\nburn\lib\MOD5270.a(emulticast.o)
 .debug_pubnames
                0x00003829       0x80 D:\nburn\lib\NetBurner.a(extraio.o)

.debug_info     0x00000000    0x2e04e
 *(.debug_info)
 .debug_info    0x00000000     0x5cfa main.o
 .debug_info    0x00005cfa     0x2c0b D:\nburn\lib\MOD5270.a(bsp.o)
 .debug_info    0x00008905     0x218e D:\nburn\lib\MOD5270.a(pins.o)
 .debug_info    0x0000aa93      0x351 D:\nburn\lib\NetBurner.a(ucosmcfc.o)
 .debug_info    0x0000ade4     0x1114 D:\nburn\lib\NetBurner.a(ucos.o)
 .debug_info    0x0000bef8      0xb30 D:\nburn\lib\NetBurner.a(ucosmain.o)
 .debug_info    0x0000ca28      0xf32 D:\nburn\lib\NetBurner.a(fileio.o)
 .debug_info    0x0000d95a      0x29e D:\nburn\lib\NetBurner.a(tzsetchar.o)
 .debug_info    0x0000dbf8      0x17f D:\nburn\lib\NetBurner.a(main.o)
 .debug_info    0x0000dd77     0x11dc D:\nburn\lib\NetBurner.a(utils.o)
 .debug_info    0x0000ef53     0x16d8 D:\nburn\lib\NetBurner.a(ip.o)
 .debug_info    0x0001062b     0x1034 D:\nburn\lib\NetBurner.a(buffers.o)
 .debug_info    0x0001165f     0x1a8c D:\nburn\lib\NetBurner.a(arp.o)
 .debug_info    0x000130eb      0xa06 D:\nburn\lib\NetBurner.a(dns.o)
 .debug_info    0x00013af1     0x19da D:\nburn\lib\NetBurner.a(udp.o)
 .debug_info    0x000154cb     0x44d7 D:\nburn\lib\NetBurner.a(tcp.o)
 .debug_info    0x000199a2      0x8da D:\nburn\lib\NetBurner.a(iosys.o)
 .debug_info    0x0001a27c     0x35f5 D:\nburn\lib\NetBurner.a(dhcpc.o)
 .debug_info    0x0001d871      0x123 D:\nburn\lib\NetBurner.a(nbtime.o)
 .debug_info    0x0001d994      0xab3 D:\nburn\lib\NetBurner.a(ntpclient.o)
 .debug_info    0x0001e447      0xa66 D:\nburn\lib\NetBurner.a(netinterface.o)
 .debug_info    0x0001eead      0x95e D:\nburn\lib\NetBurner.a(taskmon.o)
 .debug_info    0x0001f80b      0xb1d D:\nburn\lib\NetBurner.a(autoupdate.o)
 .debug_info    0x00020328      0x143 D:\nburn\lib\NetBurner.a(device.o)
 .debug_info    0x0002046b      0xe5c D:\nburn\lib\NetBurner.a(system.o)
 .debug_info    0x000212c7      0x429 D:\nburn\lib\NetBurner.a(new_ops.o)
 .debug_info    0x000216f0     0x208d D:\nburn\lib\MOD5270.a(ioboard.o)
 .debug_info    0x0002377d     0x3657 D:\nburn\lib\MOD5270.a(serial.o)
 .debug_info    0x00026dd4     0x2e24 D:\nburn\lib\MOD5270.a(ethernet.o)
 .debug_info    0x00029bf8     0x21e9 D:\nburn\lib\MOD5270.a(etherprint.o)
 .debug_info    0x0002bde1     0x1eed D:\nburn\lib\MOD5270.a(emulticast.o)
 .debug_info    0x0002dcce      0x380 D:\nburn\lib\NetBurner.a(extraio.o)

.debug_abbrev   0x00000000     0x53ca
 *(.debug_abbrev)
 .debug_abbrev  0x00000000      0x6f2 main.o
 .debug_abbrev  0x000006f2      0x370 D:\nburn\lib\MOD5270.a(bsp.o)
 .debug_abbrev  0x00000a62      0x2aa D:\nburn\lib\MOD5270.a(pins.o)
 .debug_abbrev  0x00000d0c      0x133 D:\nburn\lib\NetBurner.a(ucosmcfc.o)
 .debug_abbrev  0x00000e3f      0x227 D:\nburn\lib\NetBurner.a(ucos.o)
 .debug_abbrev  0x00001066      0x1cb D:\nburn\lib\NetBurner.a(ucosmain.o)
 .debug_abbrev  0x00001231      0x2a4 D:\nburn\lib\NetBurner.a(fileio.o)
 .debug_abbrev  0x000014d5       0xf3 D:\nburn\lib\NetBurner.a(tzsetchar.o)
 .debug_abbrev  0x000015c8       0xd6 D:\nburn\lib\NetBurner.a(main.o)
 .debug_abbrev  0x0000169e      0x33e D:\nburn\lib\NetBurner.a(utils.o)
 .debug_abbrev  0x000019dc      0x3d7 D:\nburn\lib\NetBurner.a(ip.o)
 .debug_abbrev  0x00001db3      0x340 D:\nburn\lib\NetBurner.a(buffers.o)
 .debug_abbrev  0x000020f3      0x368 D:\nburn\lib\NetBurner.a(arp.o)
 .debug_abbrev  0x0000245b      0x20d D:\nburn\lib\NetBurner.a(dns.o)
 .debug_abbrev  0x00002668      0x3e3 D:\nburn\lib\NetBurner.a(udp.o)
 .debug_abbrev  0x00002a4b      0x58e D:\nburn\lib\NetBurner.a(tcp.o)
 .debug_abbrev  0x00002fd9      0x2cf D:\nburn\lib\NetBurner.a(iosys.o)
 .debug_abbrev  0x000032a8      0x46c D:\nburn\lib\NetBurner.a(dhcpc.o)
 .debug_abbrev  0x00003714       0xc1 D:\nburn\lib\NetBurner.a(nbtime.o)
 .debug_abbrev  0x000037d5      0x215 D:\nburn\lib\NetBurner.a(ntpclient.o)
 .debug_abbrev  0x000039ea      0x215 D:\nburn\lib\NetBurner.a(netinterface.o)
 .debug_abbrev  0x00003bff      0x253 D:\nburn\lib\NetBurner.a(taskmon.o)
 .debug_abbrev  0x00003e52      0x2c1 D:\nburn\lib\NetBurner.a(autoupdate.o)
 .debug_abbrev  0x00004113       0xbc D:\nburn\lib\NetBurner.a(device.o)
 .debug_abbrev  0x000041cf      0x28b D:\nburn\lib\NetBurner.a(system.o)
 .debug_abbrev  0x0000445a      0x132 D:\nburn\lib\NetBurner.a(new_ops.o)
 .debug_abbrev  0x0000458c      0x1d2 D:\nburn\lib\MOD5270.a(ioboard.o)
 .debug_abbrev  0x0000475e      0x431 D:\nburn\lib\MOD5270.a(serial.o)
 .debug_abbrev  0x00004b8f      0x31a D:\nburn\lib\MOD5270.a(ethernet.o)
 .debug_abbrev  0x00004ea9      0x200 D:\nburn\lib\MOD5270.a(etherprint.o)
 .debug_abbrev  0x000050a9      0x1a6 D:\nburn\lib\MOD5270.a(emulticast.o)
 .debug_abbrev  0x0000524f      0x17b D:\nburn\lib\NetBurner.a(extraio.o)

.debug_line     0x00000000     0x8517
 *(.debug_line)
 .debug_line    0x00000000      0x8b6 main.o
 .debug_line    0x000008b6      0x292 D:\nburn\lib\MOD5270.a(bsp.o)
 .debug_line    0x00000b48      0x939 D:\nburn\lib\MOD5270.a(pins.o)
 .debug_line    0x00001481      0x134 D:\nburn\lib\NetBurner.a(ucosmcfc.o)
 .debug_line    0x000015b5      0x3e8 D:\nburn\lib\NetBurner.a(ucos.o)
 .debug_line    0x0000199d      0x179 D:\nburn\lib\NetBurner.a(ucosmain.o)
 .debug_line    0x00001b16      0x2b1 D:\nburn\lib\NetBurner.a(fileio.o)
 .debug_line    0x00001dc7      0x1fb D:\nburn\lib\NetBurner.a(tzsetchar.o)
 .debug_line    0x00001fc2       0x7f D:\nburn\lib\NetBurner.a(main.o)
 .debug_line    0x00002041      0x41c D:\nburn\lib\NetBurner.a(utils.o)
 .debug_line    0x0000245d      0x64a D:\nburn\lib\NetBurner.a(ip.o)
 .debug_line    0x00002aa7      0x437 D:\nburn\lib\NetBurner.a(buffers.o)
 .debug_line    0x00002ede      0x8a4 D:\nburn\lib\NetBurner.a(arp.o)
 .debug_line    0x00003782      0x1bc D:\nburn\lib\NetBurner.a(dns.o)
 .debug_line    0x0000393e      0x59a D:\nburn\lib\NetBurner.a(udp.o)
 .debug_line    0x00003ed8     0x1a20 D:\nburn\lib\NetBurner.a(tcp.o)
 .debug_line    0x000058f8      0x228 D:\nburn\lib\NetBurner.a(iosys.o)
 .debug_line    0x00005b20      0xc5b D:\nburn\lib\NetBurner.a(dhcpc.o)
 .debug_line    0x0000677b       0xe2 D:\nburn\lib\NetBurner.a(nbtime.o)
 .debug_line    0x0000685d      0x132 D:\nburn\lib\NetBurner.a(ntpclient.o)
 .debug_line    0x0000698f      0x180 D:\nburn\lib\NetBurner.a(netinterface.o)
 .debug_line    0x00006b0f      0x1aa D:\nburn\lib\NetBurner.a(taskmon.o)
 .debug_line    0x00006cb9      0x1cd D:\nburn\lib\NetBurner.a(autoupdate.o)
 .debug_line    0x00006e86       0x7b D:\nburn\lib\NetBurner.a(device.o)
 .debug_line    0x00006f01      0x255 D:\nburn\lib\NetBurner.a(system.o)
 .debug_line    0x00007156      0x178 D:\nburn\lib\NetBurner.a(new_ops.o)
 .debug_line    0x000072ce      0x104 D:\nburn\lib\MOD5270.a(ioboard.o)
 .debug_line    0x000073d2      0x7b6 D:\nburn\lib\MOD5270.a(serial.o)
 .debug_line    0x00007b88      0x561 D:\nburn\lib\MOD5270.a(ethernet.o)
 .debug_line    0x000080e9      0x296 D:\nburn\lib\MOD5270.a(etherprint.o)
 .debug_line    0x0000837f       0xc6 D:\nburn\lib\MOD5270.a(emulticast.o)
 .debug_line    0x00008445       0xd2 D:\nburn\lib\NetBurner.a(extraio.o)

.debug_frame    0x00000000     0xa974
 *(.debug_frame)
 .debug_frame   0x00000000      0x3b4 main.o
 .debug_frame   0x000003b4      0x1c8 D:\nburn\lib\MOD5270.a(bsp.o)
 .debug_frame   0x0000057c       0xb4 D:\nburn\lib\MOD5270.a(pins.o)
 .debug_frame   0x00000630       0x9c D:\nburn\lib\NetBurner.a(ucosmcfc.o)
 .debug_frame   0x000006cc      0x45c D:\nburn\lib\NetBurner.a(ucos.o)
 .debug_frame   0x00000b28       0xcc D:\nburn\lib\NetBurner.a(ucosmain.o)
 .debug_frame   0x00000bf4      0x1e4 D:\nburn\lib\NetBurner.a(fileio.o)
 .debug_frame   0x00000dd8       0x64 D:\nburn\lib\NetBurner.a(tzsetchar.o)
 .debug_frame   0x00000e3c       0x54 D:\nburn\lib\NetBurner.a(main.o)
 .debug_frame   0x00000e90      0x268 D:\nburn\lib\NetBurner.a(utils.o)
 .debug_frame   0x000010f8      0x41c D:\nburn\lib\NetBurner.a(ip.o)
 .debug_frame   0x00001514      0x414 D:\nburn\lib\NetBurner.a(buffers.o)
 .debug_frame   0x00001928      0x508 D:\nburn\lib\NetBurner.a(arp.o)
 .debug_frame   0x00001e30       0x88 D:\nburn\lib\NetBurner.a(dns.o)
 .debug_frame   0x00001eb8      0x4c4 D:\nburn\lib\NetBurner.a(udp.o)
 .debug_frame   0x0000237c      0xf34 D:\nburn\lib\NetBurner.a(tcp.o)
 .debug_frame   0x000032b0      0x2f8 D:\nburn\lib\NetBurner.a(iosys.o)
 .debug_frame   0x000035a8      0x610 D:\nburn\lib\NetBurner.a(dhcpc.o)
 .debug_frame   0x00003bb8       0x44 D:\nburn\lib\NetBurner.a(nbtime.o)
 .debug_frame   0x00003bfc       0xf0 D:\nburn\lib\NetBurner.a(ntpclient.o)
 .debug_frame   0x00003cec      0x1f4 D:\nburn\lib\NetBurner.a(netinterface.o)
 .debug_frame   0x00003ee0       0x8c D:\nburn\lib\NetBurner.a(taskmon.o)
 .debug_frame   0x00003f6c      0x128 D:\nburn\lib\NetBurner.a(autoupdate.o)
 .debug_frame   0x00004094       0x60 D:\nburn\lib\NetBurner.a(device.o)
 .debug_frame   0x000040f4      0x194 D:\nburn\lib\NetBurner.a(system.o)
 .debug_frame   0x00004288       0x30 D:\nburn\lib\NetBurner.a(new_ops.o)
 .debug_frame   0x000042b8      0x144 D:\nburn\lib\MOD5270.a(ioboard.o)
 .debug_frame   0x000043fc      0x41c D:\nburn\lib\MOD5270.a(serial.o)
 .debug_frame   0x00004818      0x368 D:\nburn\lib\MOD5270.a(ethernet.o)
 .debug_frame   0x00004b80      0x1dc D:\nburn\lib\MOD5270.a(etherprint.o)
 .debug_frame   0x00004d5c       0x68 D:\nburn\lib\MOD5270.a(emulticast.o)
 .debug_frame   0x00004dc4       0xd0 D:\nburn\lib\NetBurner.a(extraio.o)
 .debug_frame   0x00004e94     0x1420 d:/nburn/gcc-m68k/bin/../lib/gcc/m68k-elf/4.2.1/../../../../m68k-elf/lib/m5208\libstdc++.a(string-inst.o)
 .debug_frame   0x000062b4       0x30 d:/nburn/gcc-m68k/bin/../lib/gcc/m68k-elf/4.2.1/../../../../m68k-elf/lib/m5208\libstdc++.a(del_op.o)
 .debug_frame   0x000062e4      0x1f4 d:/nburn/gcc-m68k/bin/../lib/gcc/m68k-elf/4.2.1/../../../../m68k-elf/lib/m5208\libstdc++.a(eh_personality.o)
 .debug_frame   0x000064d8       0x94 d:/nburn/gcc-m68k/bin/../lib/gcc/m68k-elf/4.2.1/../../../../m68k-elf/lib/m5208\libstdc++.a(eh_alloc.o)
 .debug_frame   0x0000656c      0x410 d:/nburn/gcc-m68k/bin/../lib/gcc/m68k-elf/4.2.1/../../../../m68k-elf/lib/m5208\libstdc++.a(functexcept.o)
 .debug_frame   0x0000697c       0xe0 d:/nburn/gcc-m68k/bin/../lib/gcc/m68k-elf/4.2.1/../../../../m68k-elf/lib/m5208\libstdc++.a(ios_failure.o)
 .debug_frame   0x00006a5c      0x4ac d:/nburn/gcc-m68k/bin/../lib/gcc/m68k-elf/4.2.1/../../../../m68k-elf/lib/m5208\libstdc++.a(stdexcept.o)
 .debug_frame   0x00006f08       0x74 d:/nburn/gcc-m68k/bin/../lib/gcc/m68k-elf/4.2.1/../../../../m68k-elf/lib/m5208\libstdc++.a(eh_throw.o)
 .debug_frame   0x00006f7c       0x98 d:/nburn/gcc-m68k/bin/../lib/gcc/m68k-elf/4.2.1/../../../../m68k-elf/lib/m5208\libstdc++.a(new_handler.o)
 .debug_frame   0x00007014       0x44 d:/nburn/gcc-m68k/bin/../lib/gcc/m68k-elf/4.2.1/../../../../m68k-elf/lib/m5208\libstdc++.a(eh_globals.o)
 .debug_frame   0x00007058       0xe4 d:/nburn/gcc-m68k/bin/../lib/gcc/m68k-elf/4.2.1/../../../../m68k-elf/lib/m5208\libstdc++.a(eh_exception.o)
 .debug_frame   0x0000713c       0x8c d:/nburn/gcc-m68k/bin/../lib/gcc/m68k-elf/4.2.1/../../../../m68k-elf/lib/m5208\libstdc++.a(eh_catch.o)
 .debug_frame   0x000071c8       0xbc d:/nburn/gcc-m68k/bin/../lib/gcc/m68k-elf/4.2.1/../../../../m68k-elf/lib/m5208\libstdc++.a(eh_terminate.o)
 .debug_frame   0x00007284       0x80 d:/nburn/gcc-m68k/bin/../lib/gcc/m68k-elf/4.2.1/../../../../m68k-elf/lib/m5208\libstdc++.a(bad_typeid.o)
 .debug_frame   0x00007304       0x3c d:/nburn/gcc-m68k/bin/../lib/gcc/m68k-elf/4.2.1/../../../../m68k-elf/lib/m5208\libstdc++.a(eh_call.o)
 .debug_frame   0x00007340       0xf0 d:/nburn/gcc-m68k/bin/../lib/gcc/m68k-elf/4.2.1/../../../../m68k-elf/lib/m5208\libstdc++.a(class_type_info.o)
 .debug_frame   0x00007430       0x80 d:/nburn/gcc-m68k/bin/../lib/gcc/m68k-elf/4.2.1/../../../../m68k-elf/lib/m5208\libstdc++.a(bad_cast.o)
 .debug_frame   0x000074b0       0xcc d:/nburn/gcc-m68k/bin/../lib/gcc/m68k-elf/4.2.1/../../../../m68k-elf/lib/m5208\libstdc++.a(si_class_type_info.o)
 .debug_frame   0x0000757c       0x70 d:/nburn/gcc-m68k/bin/../lib/gcc/m68k-elf/4.2.1/../../../../m68k-elf/lib/m5208\libstdc++.a(vterminate.o)
 .debug_frame   0x000075ec      0x804 d:/nburn/gcc-m68k/bin/../lib/gcc/m68k-elf/4.2.1/../../../../m68k-elf/lib/m5208\libstdc++.a(cp-demangle.o)
 .debug_frame   0x00007df0       0xc0 d:/nburn/gcc-m68k/bin/../lib/gcc/m68k-elf/4.2.1/../../../../m68k-elf/lib/m5208\libstdc++.a(tinfo.o)
 .debug_frame   0x00007eb0       0x2c d:/nburn/gcc-m68k/bin/../lib/gcc/m68k-elf/4.2.1/../../../../m68k-elf/lib/m5208\libstdc++.a(eh_type.o)
 .debug_frame   0x00007edc       0x40 d:/nburn/gcc-m68k/bin/../lib/gcc/m68k-elf/4.2.1/m5208\libgcc.a(_muldi3.o)
 .debug_frame   0x00007f1c       0x38 d:/nburn/gcc-m68k/bin/../lib/gcc/m68k-elf/4.2.1/m5208\libgcc.a(_fixunsdfsi.o)
 .debug_frame   0x00007f54      0x144 d:/nburn/gcc-m68k/bin/../lib/gcc/m68k-elf/4.2.1/m5208\libgcc.a(fpgnulib.o)
 .debug_frame   0x00008098      0x56c d:/nburn/gcc-m68k/bin/../lib/gcc/m68k-elf/4.2.1/m5208\libgcc.a(unwind-dw2.o)
 .debug_frame   0x00008604      0x3f0 d:/nburn/gcc-m68k/bin/../lib/gcc/m68k-elf/4.2.1/m5208\libgcc.a(unwind-dw2-fde.o)
 .debug_frame   0x000089f4       0x30 d:/nburn/gcc-m68k/bin/../lib/gcc/m68k-elf/4.2.1/../../../../m68k-elf/lib/m5208\libc.a(lib_a-abort.o)
 .debug_frame   0x00008a24       0x30 d:/nburn/gcc-m68k/bin/../lib/gcc/m68k-elf/4.2.1/../../../../m68k-elf/lib/m5208\libc.a(lib_a-asctime.o)
 .debug_frame   0x00008a54       0x34 d:/nburn/gcc-m68k/bin/../lib/gcc/m68k-elf/4.2.1/../../../../m68k-elf/lib/m5208\libc.a(lib_a-asctime_r.o)
 .debug_frame   0x00008a88       0x30 d:/nburn/gcc-m68k/bin/../lib/gcc/m68k-elf/4.2.1/../../../../m68k-elf/lib/m5208\libc.a(lib_a-cxa_atexit.o)
 .debug_frame   0x00008ab8       0x2c d:/nburn/gcc-m68k/bin/../lib/gcc/m68k-elf/4.2.1/../../../../m68k-elf/lib/m5208\libc.a(lib_a-errno.o)
 .debug_frame   0x00008ae4       0x30 d:/nburn/gcc-m68k/bin/../lib/gcc/m68k-elf/4.2.1/../../../../m68k-elf/lib/m5208\libc.a(lib_a-fiprintf.o)
 .debug_frame   0x00008b14       0x5c d:/nburn/gcc-m68k/bin/../lib/gcc/m68k-elf/4.2.1/../../../../m68k-elf/lib/m5208\libc.a(lib_a-fputc.o)
 .debug_frame   0x00008b70       0x58 d:/nburn/gcc-m68k/bin/../lib/gcc/m68k-elf/4.2.1/../../../../m68k-elf/lib/m5208\libc.a(lib_a-fputs.o)
 .debug_frame   0x00008bc8       0x68 d:/nburn/gcc-m68k/bin/../lib/gcc/m68k-elf/4.2.1/../../../../m68k-elf/lib/m5208\libc.a(lib_a-fvwrite.o)
 .debug_frame   0x00008c30       0x58 d:/nburn/gcc-m68k/bin/../lib/gcc/m68k-elf/4.2.1/../../../../m68k-elf/lib/m5208\libc.a(lib_a-fwrite.o)
 .debug_frame   0x00008c88       0x4c d:/nburn/gcc-m68k/bin/../lib/gcc/m68k-elf/4.2.1/../../../../m68k-elf/lib/m5208\libc.a(lib_a-getchar.o)
 .debug_frame   0x00008cd4       0x58 d:/nburn/gcc-m68k/bin/../lib/gcc/m68k-elf/4.2.1/../../../../m68k-elf/lib/m5208\libc.a(lib_a-getc.o)
 .debug_frame   0x00008d2c       0x2c d:/nburn/gcc-m68k/bin/../lib/gcc/m68k-elf/4.2.1/../../../../m68k-elf/lib/m5208\libc.a(lib_a-gettzinfo.o)
 .debug_frame   0x00008d58       0x30 d:/nburn/gcc-m68k/bin/../lib/gcc/m68k-elf/4.2.1/../../../../m68k-elf/lib/m5208\libc.a(lib_a-gmtime.o)
 .debug_frame   0x00008d88       0x30 d:/nburn/gcc-m68k/bin/../lib/gcc/m68k-elf/4.2.1/../../../../m68k-elf/lib/m5208\libc.a(lib_a-gmtime_r.o)
 .debug_frame   0x00008db8       0x4c d:/nburn/gcc-m68k/bin/../lib/gcc/m68k-elf/4.2.1/../../../../m68k-elf/lib/m5208\libc.a(lib_a-iprintf.o)
 .debug_frame   0x00008e04       0x30 d:/nburn/gcc-m68k/bin/../lib/gcc/m68k-elf/4.2.1/../../../../m68k-elf/lib/m5208\libc.a(lib_a-lcltime_r.o)
 .debug_frame   0x00008e34       0x4c d:/nburn/gcc-m68k/bin/../lib/gcc/m68k-elf/4.2.1/../../../../m68k-elf/lib/m5208\libc.a(lib_a-malloc.o)
 .debug_frame   0x00008e80       0x58 d:/nburn/gcc-m68k/bin/../lib/gcc/m68k-elf/4.2.1/../../../../m68k-elf/lib/m5208\libc.a(lib_a-mallocr.o)
 .debug_frame   0x00008ed8       0x34 d:/nburn/gcc-m68k/bin/../lib/gcc/m68k-elf/4.2.1/../../../../m68k-elf/lib/m5208\libc.a(lib_a-memchr.o)
 .debug_frame   0x00008f0c       0x30 d:/nburn/gcc-m68k/bin/../lib/gcc/m68k-elf/4.2.1/../../../../m68k-elf/lib/m5208\libc.a(lib_a-memcmp.o)
 .debug_frame   0x00008f3c       0x38 d:/nburn/gcc-m68k/bin/../lib/gcc/m68k-elf/4.2.1/../../../../m68k-elf/lib/m5208\libc.a(lib_a-memmove.o)
 .debug_frame   0x00008f74       0x70 d:/nburn/gcc-m68k/bin/../lib/gcc/m68k-elf/4.2.1/../../../../m68k-elf/lib/m5208\libc.a(lib_a-mktm_r.o)
 .debug_frame   0x00008fe4       0x58 d:/nburn/gcc-m68k/bin/../lib/gcc/m68k-elf/4.2.1/../../../../m68k-elf/lib/m5208\libc.a(lib_a-putc.o)
 .debug_frame   0x0000903c       0x54 d:/nburn/gcc-m68k/bin/../lib/gcc/m68k-elf/4.2.1/../../../../m68k-elf/lib/m5208\libc.a(lib_a-puts.o)
 .debug_frame   0x00009090       0x30 d:/nburn/gcc-m68k/bin/../lib/gcc/m68k-elf/4.2.1/../../../../m68k-elf/lib/m5208\libc.a(lib_a-realloc.o)
 .debug_frame   0x000090c0       0x64 d:/nburn/gcc-m68k/bin/../lib/gcc/m68k-elf/4.2.1/../../../../m68k-elf/lib/m5208\libc.a(lib_a-reallocr.o)
 .debug_frame   0x00009124       0x4c d:/nburn/gcc-m68k/bin/../lib/gcc/m68k-elf/4.2.1/../../../../m68k-elf/lib/m5208\libc.a(lib_a-rget.o)
 .debug_frame   0x00009170       0x3c d:/nburn/gcc-m68k/bin/../lib/gcc/m68k-elf/4.2.1/../../../../m68k-elf/lib/m5208\libc.a(lib_a-setvbuf.o)
 .debug_frame   0x000091ac      0x108 d:/nburn/gcc-m68k/bin/../lib/gcc/m68k-elf/4.2.1/../../../../m68k-elf/lib/m5208\libc.a(lib_a-signal.o)
 .debug_frame   0x000092b4       0x48 d:/nburn/gcc-m68k/bin/../lib/gcc/m68k-elf/4.2.1/../../../../m68k-elf/lib/m5208\libc.a(lib_a-signalr.o)
 .debug_frame   0x000092fc       0x54 d:/nburn/gcc-m68k/bin/../lib/gcc/m68k-elf/4.2.1/../../../../m68k-elf/lib/m5208\libc.a(lib_a-siprintf.o)
 .debug_frame   0x00009350       0x54 d:/nburn/gcc-m68k/bin/../lib/gcc/m68k-elf/4.2.1/../../../../m68k-elf/lib/m5208\libc.a(lib_a-sprintf.o)
 .debug_frame   0x000093a4       0x6c d:/nburn/gcc-m68k/bin/../lib/gcc/m68k-elf/4.2.1/../../../../m68k-elf/lib/m5208\libc.a(lib_a-sscanf.o)
 .debug_frame   0x00009410       0x30 d:/nburn/gcc-m68k/bin/../lib/gcc/m68k-elf/4.2.1/../../../../m68k-elf/lib/m5208\libc.a(lib_a-strcat.o)
 .debug_frame   0x00009440       0x2c d:/nburn/gcc-m68k/bin/../lib/gcc/m68k-elf/4.2.1/../../../../m68k-elf/lib/m5208\libc.a(lib_a-strcmp.o)
 .debug_frame   0x0000946c       0x30 d:/nburn/gcc-m68k/bin/../lib/gcc/m68k-elf/4.2.1/../../../../m68k-elf/lib/m5208\libc.a(lib_a-strcpy.o)
 .debug_frame   0x0000949c       0x2c d:/nburn/gcc-m68k/bin/../lib/gcc/m68k-elf/4.2.1/../../../../m68k-elf/lib/m5208\libc.a(lib_a-strlen.o)
 .debug_frame   0x000094c8       0x34 d:/nburn/gcc-m68k/bin/../lib/gcc/m68k-elf/4.2.1/../../../../m68k-elf/lib/m5208\libc.a(lib_a-strncmp.o)
 .debug_frame   0x000094fc       0x5c d:/nburn/gcc-m68k/bin/../lib/gcc/m68k-elf/4.2.1/../../../../m68k-elf/lib/m5208\libc.a(lib_a-strtoul.o)
 .debug_frame   0x00009558       0xc8 d:/nburn/gcc-m68k/bin/../lib/gcc/m68k-elf/4.2.1/../../../../m68k-elf/lib/m5208\libc.a(lib_a-vfiprintf.o)
 .debug_frame   0x00009620      0x100 d:/nburn/gcc-m68k/bin/../lib/gcc/m68k-elf/4.2.1/../../../../m68k-elf/lib/m5208\libc.a(lib_a-vfprintf.o)
 .debug_frame   0x00009720       0xe8 d:/nburn/gcc-m68k/bin/../lib/gcc/m68k-elf/4.2.1/../../../../m68k-elf/lib/m5208\libc.a(lib_a-vfscanf.o)
 .debug_frame   0x00009808       0x54 d:/nburn/gcc-m68k/bin/../lib/gcc/m68k-elf/4.2.1/../../../../m68k-elf/lib/m5208\libc.a(lib_a-wbuf.o)
 .debug_frame   0x0000985c       0x50 d:/nburn/gcc-m68k/bin/../lib/gcc/m68k-elf/4.2.1/../../../../m68k-elf/lib/m5208\libc.a(lib_a-wcrtomb.o)
 .debug_frame   0x000098ac       0x60 d:/nburn/gcc-m68k/bin/../lib/gcc/m68k-elf/4.2.1/../../../../m68k-elf/lib/m5208\libc.a(lib_a-wcsrtombs.o)
 .debug_frame   0x0000990c       0x3c d:/nburn/gcc-m68k/bin/../lib/gcc/m68k-elf/4.2.1/../../../../m68k-elf/lib/m5208\libc.a(lib_a-wctomb_r.o)
 .debug_frame   0x00009948       0x38 d:/nburn/gcc-m68k/bin/../lib/gcc/m68k-elf/4.2.1/../../../../m68k-elf/lib/m5208\libc.a(lib_a-wsetup.o)
 .debug_frame   0x00009980       0x38 d:/nburn/gcc-m68k/bin/../lib/gcc/m68k-elf/4.2.1/../../../../m68k-elf/lib/m5208\libc.a(lib_a-__atexit.o)
 .debug_frame   0x000099b8      0x170 d:/nburn/gcc-m68k/bin/../lib/gcc/m68k-elf/4.2.1/../../../../m68k-elf/lib/m5208\libc.a(lib_a-dtoa.o)
 .debug_frame   0x00009b28       0x44 d:/nburn/gcc-m68k/bin/../lib/gcc/m68k-elf/4.2.1/../../../../m68k-elf/lib/m5208\libc.a(lib_a-fflush.o)
 .debug_frame   0x00009b6c       0xcc d:/nburn/gcc-m68k/bin/../lib/gcc/m68k-elf/4.2.1/../../../../m68k-elf/lib/m5208\libc.a(lib_a-findfp.o)
 .debug_frame   0x00009c38       0x70 d:/nburn/gcc-m68k/bin/../lib/gcc/m68k-elf/4.2.1/../../../../m68k-elf/lib/m5208\libc.a(lib_a-fread.o)
 .debug_frame   0x00009ca8       0x78 d:/nburn/gcc-m68k/bin/../lib/gcc/m68k-elf/4.2.1/../../../../m68k-elf/lib/m5208\libc.a(lib_a-freer.o)
 .debug_frame   0x00009d20       0x64 d:/nburn/gcc-m68k/bin/../lib/gcc/m68k-elf/4.2.1/../../../../m68k-elf/lib/m5208\libc.a(lib_a-fwalk.o)
 .debug_frame   0x00009d84       0x2c d:/nburn/gcc-m68k/bin/../lib/gcc/m68k-elf/4.2.1/../../../../m68k-elf/lib/m5208\libc.a(lib_a-iswspace.o)
 .debug_frame   0x00009db0       0x9c d:/nburn/gcc-m68k/bin/../lib/gcc/m68k-elf/4.2.1/../../../../m68k-elf/lib/m5208\libc.a(lib_a-locale.o)
 .debug_frame   0x00009e4c       0x40 d:/nburn/gcc-m68k/bin/../lib/gcc/m68k-elf/4.2.1/../../../../m68k-elf/lib/m5208\libc.a(lib_a-makebuf.o)
 .debug_frame   0x00009e8c       0x50 d:/nburn/gcc-m68k/bin/../lib/gcc/m68k-elf/4.2.1/../../../../m68k-elf/lib/m5208\libc.a(lib_a-mbrtowc.o)
 .debug_frame   0x00009edc       0x2c d:/nburn/gcc-m68k/bin/../lib/gcc/m68k-elf/4.2.1/../../../../m68k-elf/lib/m5208\libc.a(lib_a-mbtowc_r.o)
 .debug_frame   0x00009f08      0x2cc d:/nburn/gcc-m68k/bin/../lib/gcc/m68k-elf/4.2.1/../../../../m68k-elf/lib/m5208\libc.a(lib_a-mprec.o)
 .debug_frame   0x0000a1d4       0x60 d:/nburn/gcc-m68k/bin/../lib/gcc/m68k-elf/4.2.1/../../../../m68k-elf/lib/m5208\libc.a(lib_a-refill.o)
 .debug_frame   0x0000a234       0x34 d:/nburn/gcc-m68k/bin/../lib/gcc/m68k-elf/4.2.1/../../../../m68k-elf/lib/m5208\libc.a(lib_a-sccl.o)
 .debug_frame   0x0000a268       0x2c d:/nburn/gcc-m68k/bin/../lib/gcc/m68k-elf/4.2.1/../../../../m68k-elf/lib/m5208\libc.a(lib_a-sf_nan.o)
 .debug_frame   0x0000a294       0x30 d:/nburn/gcc-m68k/bin/../lib/gcc/m68k-elf/4.2.1/../../../../m68k-elf/lib/m5208\libc.a(lib_a-s_isinfd.o)
 .debug_frame   0x0000a2c4       0x30 d:/nburn/gcc-m68k/bin/../lib/gcc/m68k-elf/4.2.1/../../../../m68k-elf/lib/m5208\libc.a(lib_a-s_isnand.o)
 .debug_frame   0x0000a2f4       0x84 d:/nburn/gcc-m68k/bin/../lib/gcc/m68k-elf/4.2.1/../../../../m68k-elf/lib/m5208\libc.a(lib_a-stdio.o)
 .debug_frame   0x0000a378      0x164 d:/nburn/gcc-m68k/bin/../lib/gcc/m68k-elf/4.2.1/../../../../m68k-elf/lib/m5208\libc.a(lib_a-strtod.o)
 .debug_frame   0x0000a4dc       0x44 d:/nburn/gcc-m68k/bin/../lib/gcc/m68k-elf/4.2.1/../../../../m68k-elf/lib/m5208\libc.a(lib_a-strtoll_r.o)
 .debug_frame   0x0000a520       0x5c d:/nburn/gcc-m68k/bin/../lib/gcc/m68k-elf/4.2.1/../../../../m68k-elf/lib/m5208\libc.a(lib_a-strtol.o)
 .debug_frame   0x0000a57c       0x44 d:/nburn/gcc-m68k/bin/../lib/gcc/m68k-elf/4.2.1/../../../../m68k-elf/lib/m5208\libc.a(lib_a-strtoull_r.o)
 .debug_frame   0x0000a5c0       0x84 d:/nburn/gcc-m68k/bin/../lib/gcc/m68k-elf/4.2.1/../../../../m68k-elf/lib/m5208\libc.a(lib_a-ungetc.o)
 .debug_frame   0x0000a644       0x30 d:/nburn/gcc-m68k/bin/../lib/gcc/m68k-elf/4.2.1/../../../../m68k-elf/lib/m5208\libc.a(lib_a-writer.o)
 .debug_frame   0x0000a674       0x34 d:/nburn/gcc-m68k/bin/../lib/gcc/m68k-elf/4.2.1/../../../../m68k-elf/lib/m5208\libc.a(lib_a-callocr.o)
 .debug_frame   0x0000a6a8       0x30 d:/nburn/gcc-m68k/bin/../lib/gcc/m68k-elf/4.2.1/../../../../m68k-elf/lib/m5208\libc.a(lib_a-closer.o)
 .debug_frame   0x0000a6d8       0x5c d:/nburn/gcc-m68k/bin/../lib/gcc/m68k-elf/4.2.1/../../../../m68k-elf/lib/m5208\libc.a(lib_a-fclose.o)
 .debug_frame   0x0000a734       0x30 d:/nburn/gcc-m68k/bin/../lib/gcc/m68k-elf/4.2.1/../../../../m68k-elf/lib/m5208\libc.a(lib_a-fstatr.o)
 .debug_frame   0x0000a764       0xc4 d:/nburn/gcc-m68k/bin/../lib/gcc/m68k-elf/4.2.1/../../../../m68k-elf/lib/m5208\libc.a(lib_a-gdtoa-gethex.o)
 .debug_frame   0x0000a828       0x6c d:/nburn/gcc-m68k/bin/../lib/gcc/m68k-elf/4.2.1/../../../../m68k-elf/lib/m5208\libc.a(lib_a-gdtoa-hexnan.o)
 .debug_frame   0x0000a894       0x30 d:/nburn/gcc-m68k/bin/../lib/gcc/m68k-elf/4.2.1/../../../../m68k-elf/lib/m5208\libc.a(lib_a-lseekr.o)
 .debug_frame   0x0000a8c4       0x30 d:/nburn/gcc-m68k/bin/../lib/gcc/m68k-elf/4.2.1/../../../../m68k-elf/lib/m5208\libc.a(lib_a-readr.o)
 .debug_frame   0x0000a8f4       0x40 d:/nburn/gcc-m68k/bin/../lib/gcc/m68k-elf/4.2.1/m5208\libgcc.a(_udivdi3.o)
 .debug_frame   0x0000a934       0x40 d:/nburn/gcc-m68k/bin/../lib/gcc/m68k-elf/4.2.1/m5208\libgcc.a(_umoddi3.o)

.debug_str      0x00000000     0x8db0
 *(.debug_str)
 .debug_str     0x00000000     0x290f main.o
                               0x2b8f (size before relaxing)
 .debug_str     0x0000290f      0x3e6 D:\nburn\lib\MOD5270.a(bsp.o)
                                0xf86 (size before relaxing)
 .debug_str     0x00002cf5       0x7f D:\nburn\lib\MOD5270.a(pins.o)
                                0x9af (size before relaxing)
 .debug_str     0x00002d74      0x12c D:\nburn\lib\NetBurner.a(ucosmcfc.o)
                                0x1b9 (size before relaxing)
 .debug_str     0x00002ea0      0x3ba D:\nburn\lib\NetBurner.a(ucos.o)
                                0x597 (size before relaxing)
 .debug_str     0x0000325a       0x9b D:\nburn\lib\NetBurner.a(ucosmain.o)
                                0x5a4 (size before relaxing)
 .debug_str     0x000032f5      0x195 D:\nburn\lib\NetBurner.a(fileio.o)
                                0x62b (size before relaxing)
 .debug_str     0x0000348a       0xae D:\nburn\lib\NetBurner.a(tzsetchar.o)
                                0x17e (size before relaxing)
 .debug_str     0x00003538       0x3c D:\nburn\lib\NetBurner.a(main.o)
                                0x13f (size before relaxing)
 .debug_str     0x00003574      0x316 D:\nburn\lib\NetBurner.a(utils.o)
                                0x7c4 (size before relaxing)
 .debug_str     0x0000388a      0xa14 D:\nburn\lib\NetBurner.a(ip.o)
                                0xdf3 (size before relaxing)
 .debug_str     0x0000429e      0x404 D:\nburn\lib\NetBurner.a(buffers.o)
                                0x891 (size before relaxing)
 .debug_str     0x000046a2      0x513 D:\nburn\lib\NetBurner.a(arp.o)
                                0xcb9 (size before relaxing)
 .debug_str     0x00004bb5      0x488 D:\nburn\lib\NetBurner.a(dns.o)
                                0x736 (size before relaxing)
 .debug_str     0x0000503d      0x2ad D:\nburn\lib\NetBurner.a(udp.o)
                                0xbda (size before relaxing)
 .debug_str     0x000052ea     0x14d1 D:\nburn\lib\NetBurner.a(tcp.o)
                               0x1d19 (size before relaxing)
 .debug_str     0x000067bb      0x26c D:\nburn\lib\NetBurner.a(iosys.o)
                                0x3ee (size before relaxing)
 .debug_str     0x00006a27      0xdd4 D:\nburn\lib\NetBurner.a(dhcpc.o)
                               0x177c (size before relaxing)
 .debug_str     0x000077fb       0x2b D:\nburn\lib\NetBurner.a(nbtime.o)
                                 0xf4 (size before relaxing)
 .debug_str     0x00007826      0x1f7 D:\nburn\lib\NetBurner.a(ntpclient.o)
                                0x876 (size before relaxing)
 .debug_str     0x00007a1d      0x30b D:\nburn\lib\NetBurner.a(netinterface.o)
                                0x775 (size before relaxing)
 .debug_str     0x00007d28       0xcc D:\nburn\lib\NetBurner.a(taskmon.o)
                                0x7ac (size before relaxing)
 .debug_str     0x00007df4      0x1c2 D:\nburn\lib\NetBurner.a(autoupdate.o)
                                0x87a (size before relaxing)
 .debug_str     0x00007fb6       0x86 D:\nburn\lib\NetBurner.a(device.o)
                                0x133 (size before relaxing)
 .debug_str     0x0000803c      0x102 D:\nburn\lib\NetBurner.a(system.o)
                                0x6af (size before relaxing)
 .debug_str     0x0000813e       0x1f D:\nburn\lib\NetBurner.a(new_ops.o)
                                0x15a (size before relaxing)
 .debug_str     0x0000815d      0x118 D:\nburn\lib\MOD5270.a(ioboard.o)
                                0xa47 (size before relaxing)
 .debug_str     0x00008275      0x3b8 D:\nburn\lib\MOD5270.a(serial.o)
                               0x1564 (size before relaxing)
 .debug_str     0x0000862d      0x4bc D:\nburn\lib\MOD5270.a(ethernet.o)
                               0x11b7 (size before relaxing)
 .debug_str     0x00008ae9      0x138 D:\nburn\lib\MOD5270.a(etherprint.o)
                                0xb64 (size before relaxing)
 .debug_str     0x00008c21       0xbf D:\nburn\lib\MOD5270.a(emulticast.o)
                                0x971 (size before relaxing)
 .debug_str     0x00008ce0       0xd0 D:\nburn\lib\NetBurner.a(extraio.o)
                                0x1dd (size before relaxing)

.debug_loc      0x00000000    0x13bf5
 *(.debug_loc)
 .debug_loc     0x00000000      0x2d3 main.o
 .debug_loc     0x000002d3      0x43f D:\nburn\lib\MOD5270.a(bsp.o)
 .debug_loc     0x00000712      0x2e7 D:\nburn\lib\MOD5270.a(pins.o)
 .debug_loc     0x000009f9      0x3f3 D:\nburn\lib\NetBurner.a(ucosmcfc.o)
 .debug_loc     0x00000dec     0x127b D:\nburn\lib\NetBurner.a(ucos.o)
 .debug_loc     0x00002067       0xc0 D:\nburn\lib\NetBurner.a(ucosmain.o)
 .debug_loc     0x00002127      0x94e D:\nburn\lib\NetBurner.a(fileio.o)
 .debug_loc     0x00002a75      0x4ca D:\nburn\lib\NetBurner.a(tzsetchar.o)
 .debug_loc     0x00002f3f       0x53 D:\nburn\lib\NetBurner.a(main.o)
 .debug_loc     0x00002f92      0xb06 D:\nburn\lib\NetBurner.a(utils.o)
 .debug_loc     0x00003a98     0x1775 D:\nburn\lib\NetBurner.a(ip.o)
 .debug_loc     0x0000520d     0x1068 D:\nburn\lib\NetBurner.a(buffers.o)
 .debug_loc     0x00006275     0x17f2 D:\nburn\lib\NetBurner.a(arp.o)
 .debug_loc     0x00007a67      0x3bd D:\nburn\lib\NetBurner.a(dns.o)
 .debug_loc     0x00007e24     0x15a8 D:\nburn\lib\NetBurner.a(udp.o)
 .debug_loc     0x000093cc     0x4fa7 D:\nburn\lib\NetBurner.a(tcp.o)
 .debug_loc     0x0000e373      0xa3b D:\nburn\lib\NetBurner.a(iosys.o)
 .debug_loc     0x0000edae     0x1671 D:\nburn\lib\NetBurner.a(dhcpc.o)
 .debug_loc     0x0001041f       0x72 D:\nburn\lib\NetBurner.a(nbtime.o)
 .debug_loc     0x00010491      0x23c D:\nburn\lib\NetBurner.a(ntpclient.o)
 .debug_loc     0x000106cd      0x694 D:\nburn\lib\NetBurner.a(netinterface.o)
 .debug_loc     0x00010d61      0x170 D:\nburn\lib\NetBurner.a(taskmon.o)
 .debug_loc     0x00010ed1      0x3c3 D:\nburn\lib\NetBurner.a(autoupdate.o)
 .debug_loc     0x00011294       0x60 D:\nburn\lib\NetBurner.a(device.o)
 .debug_loc     0x000112f4      0x4a7 D:\nburn\lib\NetBurner.a(system.o)
 .debug_loc     0x0001179b       0x62 D:\nburn\lib\NetBurner.a(new_ops.o)
 .debug_loc     0x000117fd      0x2ab D:\nburn\lib\MOD5270.a(ioboard.o)
 .debug_loc     0x00011aa8     0x1255 D:\nburn\lib\MOD5270.a(serial.o)
 .debug_loc     0x00012cfd      0x9ab D:\nburn\lib\MOD5270.a(ethernet.o)
 .debug_loc     0x000136a8      0x235 D:\nburn\lib\MOD5270.a(etherprint.o)
 .debug_loc     0x000138dd       0xee D:\nburn\lib\MOD5270.a(emulticast.o)
 .debug_loc     0x000139cb      0x22a D:\nburn\lib\NetBurner.a(extraio.o)

.debug_macinfo
 *(.debug_macinfo)

.debug_weaknames
 *(.debug_weaknames)

.debug_funcnames
 *(.debug_funcnames)

.debug_typenames
 *(.debug_typenames)

.debug_varnames
 *(.debug_varnames)
OUTPUT(MCAT-3CU-PS3-ARC.elf elf32-m68k)

.debug_ranges   0x00000000     0x3440
 .debug_ranges  0x00000000      0x338 main.o
 .debug_ranges  0x00000338       0x38 D:\nburn\lib\MOD5270.a(pins.o)
 .debug_ranges  0x00000370       0x18 D:\nburn\lib\NetBurner.a(ucos.o)
 .debug_ranges  0x00000388       0x40 D:\nburn\lib\NetBurner.a(fileio.o)
 .debug_ranges  0x000003c8       0x28 D:\nburn\lib\NetBurner.a(tzsetchar.o)
 .debug_ranges  0x000003f0      0x180 D:\nburn\lib\NetBurner.a(utils.o)
 .debug_ranges  0x00000570      0x218 D:\nburn\lib\NetBurner.a(ip.o)
 .debug_ranges  0x00000788      0x288 D:\nburn\lib\NetBurner.a(buffers.o)
 .debug_ranges  0x00000a10      0x340 D:\nburn\lib\NetBurner.a(arp.o)
 .debug_ranges  0x00000d50       0x58 D:\nburn\lib\NetBurner.a(dns.o)
 .debug_ranges  0x00000da8      0x318 D:\nburn\lib\NetBurner.a(udp.o)
 .debug_ranges  0x000010c0     0x10b0 D:\nburn\lib\NetBurner.a(tcp.o)
 .debug_ranges  0x00002170       0x30 D:\nburn\lib\NetBurner.a(iosys.o)
 .debug_ranges  0x000021a0      0xd38 D:\nburn\lib\NetBurner.a(dhcpc.o)
 .debug_ranges  0x00002ed8       0x60 D:\nburn\lib\NetBurner.a(ntpclient.o)
 .debug_ranges  0x00002f38       0x78 D:\nburn\lib\NetBurner.a(netinterface.o)
 .debug_ranges  0x00002fb0       0x38 D:\nburn\lib\NetBurner.a(taskmon.o)
 .debug_ranges  0x00002fe8       0x80 D:\nburn\lib\NetBurner.a(autoupdate.o)
 .debug_ranges  0x00003068      0x1d8 D:\nburn\lib\MOD5270.a(serial.o)
 .debug_ranges  0x00003240      0x188 D:\nburn\lib\MOD5270.a(ethernet.o)
 .debug_ranges  0x000033c8       0x40 D:\nburn\lib\MOD5270.a(etherprint.o)
 .debug_ranges  0x00003408       0x18 D:\nburn\lib\MOD5270.a(emulticast.o)
 .debug_ranges  0x00003420       0x20 D:\nburn\lib\NetBurner.a(extraio.o)

.comment        0x00000000      0x240
 .comment       0x00000000       0x12 main.o
 .comment       0x00000012       0x12 D:\nburn\lib\MOD5270.a(bsp.o)
 .comment       0x00000024       0x12 D:\nburn\lib\MOD5270.a(pins.o)
 .comment       0x00000036       0x12 D:\nburn\lib\NetBurner.a(ucosmcfc.o)
 .comment       0x00000048       0x12 D:\nburn\lib\NetBurner.a(ucos.o)
 .comment       0x0000005a       0x12 D:\nburn\lib\NetBurner.a(ucosmain.o)
 .comment       0x0000006c       0x12 D:\nburn\lib\NetBurner.a(fileio.o)
 .comment       0x0000007e       0x12 D:\nburn\lib\NetBurner.a(tzsetchar.o)
 .comment       0x00000090       0x12 D:\nburn\lib\NetBurner.a(main.o)
 .comment       0x000000a2       0x12 D:\nburn\lib\NetBurner.a(utils.o)
 .comment       0x000000b4       0x12 D:\nburn\lib\NetBurner.a(ip.o)
 .comment       0x000000c6       0x12 D:\nburn\lib\NetBurner.a(buffers.o)
 .comment       0x000000d8       0x12 D:\nburn\lib\NetBurner.a(arp.o)
 .comment       0x000000ea       0x12 D:\nburn\lib\NetBurner.a(dns.o)
 .comment       0x000000fc       0x12 D:\nburn\lib\NetBurner.a(udp.o)
 .comment       0x0000010e       0x12 D:\nburn\lib\NetBurner.a(tcp.o)
 .comment       0x00000120       0x12 D:\nburn\lib\NetBurner.a(iosys.o)
 .comment       0x00000132       0x12 D:\nburn\lib\NetBurner.a(dhcpc.o)
 .comment       0x00000144       0x12 D:\nburn\lib\NetBurner.a(nbtime.o)
 .comment       0x00000156       0x12 D:\nburn\lib\NetBurner.a(ntpclient.o)
 .comment       0x00000168       0x12 D:\nburn\lib\NetBurner.a(netinterface.o)
 .comment       0x0000017a       0x12 D:\nburn\lib\NetBurner.a(taskmon.o)
 .comment       0x0000018c       0x12 D:\nburn\lib\NetBurner.a(autoupdate.o)
 .comment       0x0000019e       0x12 D:\nburn\lib\NetBurner.a(device.o)
 .comment       0x000001b0       0x12 D:\nburn\lib\NetBurner.a(system.o)
 .comment       0x000001c2       0x12 D:\nburn\lib\NetBurner.a(new_ops.o)
 .comment       0x000001d4       0x12 D:\nburn\lib\MOD5270.a(ioboard.o)
 .comment       0x000001e6       0x12 D:\nburn\lib\MOD5270.a(serial.o)
 .comment       0x000001f8       0x12 D:\nburn\lib\MOD5270.a(ethernet.o)
 .comment       0x0000020a       0x12 D:\nburn\lib\MOD5270.a(etherprint.o)
 .comment       0x0000021c       0x12 D:\nburn\lib\MOD5270.a(emulticast.o)
 .comment       0x0000022e       0x12 D:\nburn\lib\NetBurner.a(extraio.o)
